CCS PCM C Compiler, Version 5.015, 5967               18-May-16 22:06

               Filename:   E:\C\Documents\Hoc Ngoai Khoa\Chuong trinh doc the mifare dung chip RFID - RC522\Code\main.lst

               ROM used:   1353 words (17%)
                           Largest free fragment is 2048
               RAM used:   15 (4%) at main() level
                           46 (12%) worst case
               Stack used: 5 locations
               Stack size: 8

*
0000:  MOVLW  04
0001:  MOVWF  0A
0002:  GOTO   4F6
0003:  NOP
.................... #include <main.h> 
.................... #include <16F887.h>//chon chip lam viec 
.................... //////////// Standard Header file for the PIC16F887 device //////////////// 
.................... /////////////////////////////////////////////////////////////////////////// 
.................... ////        (C) Copyright 1996, 2013 Custom Computer Services          //// 
.................... //// This source code may only be used by licensed users of the CCS C  //// 
.................... //// compiler.  This source code may only be distributed to other      //// 
.................... //// licensed users of the CCS C compiler.  No other use, reproduction //// 
.................... //// or distribution is permitted without written permission.          //// 
.................... //// Derivative programs created using this software in object code    //// 
.................... //// form are not restricted in any way.                               //// 
.................... /////////////////////////////////////////////////////////////////////////// 
.................... #device PIC16F887 
0004:  BCF    0A.0
0005:  BCF    0A.1
0006:  BCF    0A.2
0007:  ADDWF  02,F
0008:  RETLW  28
0009:  RETLW  0C
000A:  RETLW  01
000B:  RETLW  06
000C:  DATA 52,23
000D:  DATA 49,22
000E:  DATA 20,29
000F:  DATA C3,1A
0010:  DATA 32,19
0011:  DATA 00,00
*
0283:  MOVF   0B,W
0284:  MOVWF  29
0285:  BCF    0B.7
0286:  BSF    03.5
0287:  BSF    03.6
0288:  BSF    0C.7
0289:  BSF    0C.0
028A:  NOP
028B:  NOP
028C:  BCF    03.5
028D:  BCF    03.6
028E:  BTFSC  29.7
028F:  BSF    0B.7
0290:  BSF    03.6
0291:  MOVF   0C,W
0292:  ANDLW  7F
0293:  BTFSC  03.2
0294:  GOTO   2D7
0295:  BCF    03.6
0296:  MOVWF  29
0297:  BSF    03.6
0298:  MOVF   0D,W
0299:  BCF    03.6
029A:  MOVWF  2A
029B:  BSF    03.6
029C:  MOVF   0F,W
029D:  BCF    03.6
029E:  MOVWF  2B
029F:  MOVF   29,W
02A0:  MOVWF  2C
02A1:  CALL   0FD
02A2:  MOVF   2A,W
02A3:  BSF    03.6
02A4:  MOVWF  0D
02A5:  BCF    03.6
02A6:  MOVF   2B,W
02A7:  BSF    03.6
02A8:  MOVWF  0F
02A9:  BCF    03.6
02AA:  MOVF   0B,W
02AB:  MOVWF  2C
02AC:  BCF    0B.7
02AD:  BSF    03.5
02AE:  BSF    03.6
02AF:  BSF    0C.7
02B0:  BSF    0C.0
02B1:  NOP
02B2:  NOP
02B3:  BCF    03.5
02B4:  BCF    03.6
02B5:  BTFSC  2C.7
02B6:  BSF    0B.7
02B7:  BSF    03.6
02B8:  RLF    0C,W
02B9:  RLF    0E,W
02BA:  ANDLW  7F
02BB:  BTFSC  03.2
02BC:  GOTO   2D7
02BD:  BCF    03.6
02BE:  MOVWF  29
02BF:  BSF    03.6
02C0:  MOVF   0D,W
02C1:  BCF    03.6
02C2:  MOVWF  2A
02C3:  BSF    03.6
02C4:  MOVF   0F,W
02C5:  BCF    03.6
02C6:  MOVWF  2B
02C7:  MOVF   29,W
02C8:  MOVWF  2C
02C9:  CALL   0FD
02CA:  MOVF   2A,W
02CB:  BSF    03.6
02CC:  MOVWF  0D
02CD:  BCF    03.6
02CE:  MOVF   2B,W
02CF:  BSF    03.6
02D0:  MOVWF  0F
02D1:  INCF   0D,F
02D2:  BTFSC  03.2
02D3:  INCF   0F,F
02D4:  BCF    03.6
02D5:  GOTO   283
02D6:  BSF    03.6
02D7:  BCF    03.6
02D8:  BCF    0A.3
02D9:  BCF    0A.4
02DA:  GOTO   519 (RETURN)
*
0453:  BTFSC  2B.7
0454:  GOTO   465
0455:  MOVLW  0F
0456:  MOVWF  77
0457:  SWAPF  2A,W
0458:  ANDWF  77,F
0459:  MOVLW  0A
045A:  SUBWF  77,W
045B:  BTFSC  03.0
045C:  GOTO   460
045D:  MOVLW  30
045E:  ADDWF  77,F
045F:  GOTO   462
0460:  MOVF   2B,W
0461:  ADDWF  77,F
0462:  MOVF   77,W
0463:  MOVWF  2C
0464:  CALL   0FD
0465:  MOVLW  0F
0466:  ANDWF  2A,F
0467:  MOVLW  0A
0468:  SUBWF  2A,W
0469:  BTFSC  03.0
046A:  GOTO   46D
046B:  MOVLW  30
046C:  GOTO   46F
046D:  BCF    2B.7
046E:  MOVF   2B,W
046F:  ADDWF  2A,F
0470:  MOVF   2A,W
0471:  MOVWF  2C
0472:  CALL   0FD
0473:  BCF    0A.3
0474:  BCF    0A.4
0475:  GOTO   544 (RETURN)
....................  
.................... #list 
....................  
.................... #device ADC=16//do phan giai adc 
....................  
.................... #FUSES NOWDT                    //No Watch Dog Timer 
.................... #FUSES NOBROWNOUT               //No brownout reset 
.................... #FUSES NOLVP                    //No low voltage prgming, B3(PIC16) or B5(PIC18) used for I/O 
....................  
.................... #use delay(crystal=4000000)//thach anh hoat dong la 4Mhz 
.................... #include <lcd.h>//chen thu vien lcd 
.................... #define _lcd_h_ 
.................... #include <math.h> 
.................... //////////////////////////////////////////////////////////////////////////// 
.................... ////        (C) Copyright 1996,2011 Custom Computer Services            //// 
.................... //// This source code may only be used by licensed users of the CCS C   //// 
.................... //// compiler.  This source code may only be distributed to other       //// 
.................... //// licensed users of the CCS C compiler.  No other use, reproduction  //// 
.................... //// or distribution is permitted without written permission.           //// 
.................... //// Derivative programs created using this software in object code     //// 
.................... //// form are not restricted in any way.                                //// 
.................... //////////////////////////////////////////////////////////////////////////// 
.................... ////                                                                    //// 
.................... //// History:                                                           //// 
.................... ////  * 9/20/2001 :  Improvments are made to sin/cos code.              //// 
.................... ////                 The code now is small, much faster,                //// 
.................... ////                 and more accurate.                                 //// 
.................... ////  * 2/21/2007 :  Compiler handles & operator differently and does   //// 
.................... ////                 not return generic (int8 *) so type cast is done   //// 
.................... ////  * 6/19/2010 :  Divisions by constants converted to multiplication //// 
.................... ////                 by its inverse to improve computation speed        //// 
.................... ////  * 1/21/2011 :  Constants used for double precision math updated   //// 
.................... ////                 Updated routines include 64 bit versions of cos,   //// 
.................... ////                 asin,atan,exp,log and dependant functions          //// 
.................... ////  * 1/31/2011 :  Optimized current 32-bit float routines for cos    //// 
.................... ////                 and log function                                   //// 
.................... ////  * 6/13/2011 :  Fixed PCD overload CEIL_FLOOR functions for values //// 
.................... ////                 greater then 10000000 and less then -10000000      //// 
.................... ////                                                                    //// 
.................... //////////////////////////////////////////////////////////////////////////// 
....................  
.................... #ifndef MATH_H 
.................... #define MATH_H 
....................  
.................... #ifdef PI 
.................... #undef  PI 
.................... #endif 
.................... #define PI     3.1415926535897932 
....................  
....................  
.................... #define SQRT2  1.4142135623730950 
....................  
.................... //float const ps[4] = {5.9304945, 21.125224, 8.9403076, 0.29730279}; 
.................... //float const qs[4] = {1.0000000, 15.035723, 17.764134, 2.4934718}; 
....................  
.................... ///////////////////////////// Round Functions ////////////////////////////// 
....................  
.................... float32 CEIL_FLOOR(float32 x, unsigned int8 n) 
.................... { 
....................    float32 y, res; 
....................    unsigned int16 l; 
....................    int1 s; 
....................  
....................    s = 0; 
....................    y = x; 
....................  
....................    if (x < 0) 
....................    { 
....................       s = 1; 
....................       y = -y; 
....................    } 
....................  
....................    if (y <= 32768.0) 
....................       res = (float32)(unsigned int16)y; 
....................  
....................  else if (y < 10000000.0) 
....................    {  
....................       l = (unsigned int16)(y*0.000030517578125); 
....................       y = 32768.0*(y*0.000030517578125 - (float32)l); 
....................       res = 32768.0*(float32)l; 
....................       res += (float32)(unsigned int16)y; 
....................    } 
....................  
....................  else 
....................   res = y; 
....................  
....................  y = y - (float32)(unsigned int16)y; 
....................  
....................  if (s) 
....................   res = -res; 
....................  
....................  if (y != 0) 
....................  { 
....................   if (s == 1 && n == 0) 
....................    res -= 1.0; 
....................  
....................   if (s == 0 && n == 1) 
....................    res += 1.0; 
....................  } 
....................  if (x == 0) 
....................     res = 0; 
....................  
....................  return (res); 
.................... } 
....................  
.................... // Overloaded Functions to take care for new Data types in PCD 
.................... // Overloaded function CEIL_FLOOR() for data type - Float48 
.................... #if defined(__PCD__) 
.................... float48 CEIL_FLOOR(float48 x, unsigned int8 n) 
.................... { 
....................    float48 y, res; 
....................    unsigned int32 l; 
....................    int1 s; 
....................  
....................    s = 0; 
....................    y = x; 
....................  
....................    if (x < 0) 
....................    { 
....................       s = 1; 
....................       y = -y; 
....................    } 
....................  
....................    if (y <= 32768.0) 
....................       res = (float48)(unsigned int16)y; 
....................  
....................    else if (y < 549755813888.0) 
....................    { 
....................       l = (unsigned int32)(y*0.000030517578125); 
....................       y = 32768.0*(y*0.000030517578125 - (float48)l); 
....................       res = 32768.0*(float48)l; 
....................       res += (float48)(unsigned int16)y; 
....................    } 
....................    else 
....................    {   
....................       res = y; 
....................       y = 0.0; 
....................    } 
....................     
....................    if(y != 0) 
....................       y = y - (float48)(unsigned int16)y; 
....................  
....................    if (s) 
....................       res = -res; 
....................  
....................    if (y != 0) 
....................    { 
....................       if (s == 1 && n == 0) 
....................          res -= 1.0; 
....................  
....................       if (s == 0 && n == 1) 
....................          res += 1.0; 
....................    } 
....................    if (x == 0) 
....................       res = 0; 
....................  
....................    return (res); 
.................... } 
....................  
....................  
.................... // Overloaded function CEIL_FLOOR() for data type - Float64 
.................... float64 CEIL_FLOOR(float64 x, unsigned int8 n) 
.................... { 
....................    float64 y, res; 
....................    int64 l; 
....................    int1 s; 
....................  
....................    s = 0; 
....................    y = x; 
....................  
....................    if (x < 0) 
....................    { 
....................       s = 1; 
....................       y = -y; 
....................    } 
....................  
....................    if (y <= 32768.0) 
....................       res = (float64)(unsigned int16)y; 
....................    else if (y < 4503599627370496.0) 
....................    { 
....................       l = (int64)(y*0.000030517578125); 
....................       y = 32768.0*(y*0.000030517578125 - (float64)l); 
....................       res = 32768.0*(float64)l; 
....................       res += (float64)(unsigned int16)y; 
....................    } 
....................    else 
....................    { 
....................       res = y; 
....................       y = 0.0; 
....................    } 
....................     
....................    if(y != 0) 
....................       y = y - (float64)(unsigned int16)y; 
....................  
....................    if (s) 
....................       res = -res; 
....................  
....................    if (y != 0) 
....................    { 
....................       if (s == 1 && n == 0) 
....................          res -= 1.0; 
....................  
....................       if (s == 0 && n == 1) 
....................          res += 1.0; 
....................    } 
....................     
....................    if (x == 0) 
....................       res = 0; 
....................  
....................    return (res); 
.................... } 
.................... #endif 
....................  
.................... //////////////////////////////////////////////////////////////////////////// 
.................... //   float floor(float x) 
.................... //////////////////////////////////////////////////////////////////////////// 
.................... // Description : rounds down the number x. 
.................... // Date : N/A 
.................... // 
.................... float32 floor(float32 x) 
.................... { 
....................    return CEIL_FLOOR(x,0); 
.................... } 
.................... // Following 2 functions are overloaded functions of floor() for PCD 
.................... // Overloaded function floor() for data type - Float48 
.................... #if defined(__PCD__) 
.................... float48 floor(float48 x) 
.................... { 
....................    return CEIL_FLOOR(x, 0); 
.................... } 
....................  
.................... // Overloaded function floor() for data type - Float64 
.................... float64 floor(float64 x) 
.................... { 
....................    return CEIL_FLOOR(x, 0); 
.................... } 
.................... #endif 
....................  
....................  
.................... //////////////////////////////////////////////////////////////////////////// 
.................... //   float ceil(float x) 
.................... //////////////////////////////////////////////////////////////////////////// 
.................... // Description : rounds up the number x. 
.................... // Date : N/A 
.................... // 
.................... float32 ceil(float32 x) 
.................... { 
....................    return CEIL_FLOOR(x, 1); 
.................... } 
.................... // Following 2 functions are overloaded functions of ceil() for PCD 
.................... // Overloaded function ceil() for data type - Float48 
.................... #if defined(__PCD__) 
.................... float48 ceil(float48 x) 
.................... { 
....................    return CEIL_FLOOR(x, 1); 
.................... } 
....................  
.................... // Overloaded function ceil() for data type - Float64 
.................... float64 ceil(float64 x) 
.................... { 
....................    return CEIL_FLOOR(x, 1); 
.................... } 
.................... #endif 
....................  
....................  //////////////////////////////////////////////////////////////////////////// 
.................... //   float fabs(float x) 
.................... //////////////////////////////////////////////////////////////////////////// 
.................... // Description : Computes the absolute value of floating point number x 
.................... // Returns : returns the absolute value of x 
.................... // Date : N/A 
.................... // 
.................... #define fabs abs 
....................  
.................... //////////////////////////////////////////////////////////////////////////// 
.................... //   float fmod(float x) 
.................... //////////////////////////////////////////////////////////////////////////// 
.................... // Description : Computes the floating point remainder of x/y 
.................... // Returns : returns the value of x= i*y, for some integer i such that, if y 
.................... // is non zero, the result has the same isgn of x na dmagnitude less than the 
.................... // magnitude of y. If y is zero then a domain error occurs. 
.................... // Date : N/A 
.................... // 
....................  
.................... float fmod(float32 x,float32 y) 
.................... { 
....................    float32 i; 
....................    if (y!=0.0) 
....................    { 
....................       i=(x/y < 0.0)? ceil(x/y): floor(x/y); 
....................       return(x-(i*y)); 
....................    } 
....................    else 
....................    { 
....................    #ifdef _ERRNO 
....................    { 
....................       errno=EDOM; 
....................    } 
....................    #endif 
....................    } 
.................... } 
.................... //Overloaded function for fmod() for PCD 
.................... // Overloaded function fmod() for data type - Float48 
.................... #if defined(__PCD__) 
.................... float48 fmod(float48 x,float48 y) 
.................... { 
....................    float48 i; 
....................    if (y!=0.0) 
....................    { 
....................       i=(x/y < 0.0)? ceil(x/y): floor(x/y); 
....................       return(x-(i*y)); 
....................    } 
....................    else 
....................    { 
....................    #ifdef _ERRNO 
....................    { 
....................       errno=EDOM; 
....................    } 
....................    #endif 
....................    } 
.................... } 
.................... // Overloaded function fmod() for data type - Float64 
.................... float64 fmod(float64 x,float64 y) 
.................... { 
....................    float64 i; 
....................    if (y!=0.0) 
....................    { 
....................       i=(x/y < 0.0)? ceil(x/y): floor(x/y); 
....................       return(x-(i*y)); 
....................    } 
....................    else 
....................    { 
....................    #ifdef _ERRNO 
....................    { 
....................       errno=EDOM; 
....................    } 
....................    #endif 
....................    } 
.................... } 
.................... #endif 
.................... //////////////////// Exponential and logarithmic functions //////////////////// 
.................... //////////////////////////////////////////////////////////////////////////// 
.................... //   float exp(float x) 
.................... //////////////////////////////////////////////////////////////////////////// 
.................... // Description : returns the value (e^x) 
.................... // Date : N/A 
.................... // 
.................... #define LN2 0.6931471805599453 
.................... #define LN2_INV 1.4426950408889634073 
....................  
.................... float const pe[6] = {0.000207455774, 0.00127100575, 0.00965065093, 
....................                      0.0554965651,  0.240227138,  0.693147172}; 
....................  
....................  
.................... float32 exp(float32 x) 
.................... { 
....................    float32 y, res, r; 
....................    #if defined(__PCD__) 
....................    int8 data1; 
....................    #endif 
....................    signed int8 n; 
....................    int1 s; 
....................    #ifdef _ERRNO 
....................    if(x > 88.722838) 
....................    { 
....................       errno=ERANGE; 
....................       return(0); 
....................    } 
....................    #endif 
....................    n = (signed int16)(x*LN2_INV); 
....................    s = 0; 
....................    y = x; 
....................  
....................    if (x < 0) 
....................    { 
....................       s = 1; 
....................       n = -n; 
....................       y = -y; 
....................    } 
....................  
....................    res = 0.0; 
.................... #if !defined(__PCD__) 
....................    *((unsigned int8 *)(&res)) = n + 0x7F; 
.................... #endif 
....................  
.................... #if defined(__PCD__)  // Takes care of IEEE format for PCD 
....................    data1 = n+0x7F; 
....................    if(bit_test(data1,0)) 
....................    bit_set(*(((unsigned int8 *)(&res)+2)),7); 
....................    rotate_right(&data1,1); 
....................    bit_clear(data1,7); 
....................    *(((unsigned int8 *)(&res)+3)) = data1; 
.................... #endif 
....................  
....................    y = y*LN2_INV - (float32)n; 
....................  
....................    r = pe[0]*y + pe[1]; 
....................    r = r*y + pe[2]; 
....................    r = r*y + pe[3]; 
....................    r = r*y + pe[4]; 
....................    r = r*y + pe[5]; 
....................  
....................    res = res*(1.0 + y*r); 
....................  
....................    if (s) 
....................       res = 1.0/res; 
....................    return(res); 
.................... } 
....................  
....................  
.................... //Overloaded function for exp() for PCD 
.................... // Overloaded function exp() for data type - Float48 
.................... #if defined(__PCD__) 
.................... float48 exp(float48 x) 
.................... { 
....................    float48 y, res, r; 
....................    int8 data1; 
....................    signed int8 n; 
....................    int1 s; 
....................    #ifdef _ERRNO 
....................    if(x > 88.722838) 
....................    { 
....................       errno=ERANGE; 
....................       return(0); 
....................    } 
....................    #endif 
....................    n = (signed int16)(x*LN2_INV); 
....................    s = 0; 
....................    y = x; 
....................  
....................    if (x < 0) 
....................    { 
....................       s = 1; 
....................       n = -n; 
....................       y = -y; 
....................    } 
....................  
....................    res = 0.0; 
....................  
....................    data1 = n+0x7F; 
....................    if(bit_test(data1,0)) 
....................    bit_set(*(((unsigned int8 *)(&res)+4)),7); 
....................    rotate_right(&data1,1); 
....................    bit_clear(data1,7); 
....................    *(((unsigned int8 *)(&res)+5)) = data1; 
....................  
....................    y = y*LN2_INV - (float48)n; 
....................  
....................    r = pe[0]*y + pe[1]; 
....................    r = r*y + pe[2]; 
....................    r = r*y + pe[3]; 
....................    r = r*y + pe[4]; 
....................    r = r*y + pe[5]; 
....................  
....................    res = res*(1.0 + y*r); 
....................  
....................    if (s) 
....................       res = 1.0/res; 
....................    return(res); 
.................... } 
....................  
.................... // Overloaded function exp() for data type - Float64 
.................... float64 const pe_64[12] ={9.30741400474913e-011,-4.28655416283316e-011, 
....................                           8.71486547014137e-009,9.84458531538385e-008, 
....................                           1.32588296983536e-006,1.52489283823016e-005, 
....................                           0.000154037598423921,0.00133335487036216, 
....................                           0.00961812936407326,0.0555041086222122, 
....................                           0.240226506962827,0.693147180559823}; 
....................  
.................... float64 exp(float64 x) 
.................... { 
....................    float64 y, res, r; 
....................    unsigned int16 data1, data2; 
....................    unsigned int16 *p; 
....................    signed int16 n; 
....................    int1 s; 
....................    #ifdef _ERRNO 
....................    if(x > 709.7827128) 
....................    { 
....................       errno=ERANGE; 
....................       return(0); 
....................    } 
....................    #endif 
....................    y = x*LN2_INV; 
....................    n = (signed int16)y; 
....................    s = 0; 
....................    y = x; 
....................  
....................    if (x < 0) 
....................    { 
....................       s = 1; 
....................       n = -n; 
....................       y = -y; 
....................    } 
....................  
....................    res = 0.0; 
....................  
.................... #if !defined(__PCD__) 
....................    *((unsigned int16 *)(&res)) = n + 0x7F; 
.................... #endif 
....................    p= (((unsigned int16 *)(&res))+3); 
....................    data1 = *p; 
....................    data2 = *p;    
....................    data1 = n + 0x3FF; 
....................    data1 = data1 <<4; 
....................    if(bit_test(data2,15)) 
....................    bit_set(data1,15); 
....................    data2 = data2 & 0x000F; 
....................    data1 ^= data2; 
....................  
....................    *(((unsigned int16 *)(&res)+3)) = data1; 
....................  
....................  
....................    y = y*LN2_INV - (float64)n; 
....................  
....................    r = pe_64[0]*y + pe_64[1]; 
....................    r = r*y + pe_64[2]; 
....................    r = r*y + pe_64[3]; 
....................    r = r*y + pe_64[4]; 
....................    r = r*y + pe_64[5]; 
....................    r = r*y + pe_64[6]; 
....................    r = r*y + pe_64[7]; 
....................    r = r*y + pe_64[8]; 
....................    r = r*y + pe_64[9]; 
....................    r = r*y + pe_64[10]; 
....................    r = r*y + pe_64[11]; 
....................     
....................    res = res*(1.0 + y*r); 
....................  
....................    if (s) 
....................       res = 1.0/res; 
....................    return(res); 
.................... } 
.................... #ENDIF 
....................  
....................  
.................... /************************************************************/ 
....................  
.................... float32 const pl[4] = {-1.080310025160955, 1.999999947089217}; 
.................... float32 const ql[4] = {0.091284365719509, -0.873491916557671}; 
....................  
.................... //////////////////////////////////////////////////////////////////////////// 
.................... //   float log(float x) 
.................... //////////////////////////////////////////////////////////////////////////// 
.................... // Description : returns the the natural log of x 
.................... // Date : N/A 
.................... // 
.................... float32 log(float32 x) 
.................... { 
....................    float32 y, res, r, y2; 
....................    #if defined(__PCD__) 
....................    unsigned int8  data1,data2; 
....................    #endif 
....................    signed int8 n; 
....................    #ifdef _ERRNO 
....................    if(x <0) 
....................    { 
....................       errno=EDOM; 
....................    } 
....................    if(x ==0) 
....................    { 
....................       errno=ERANGE; 
....................       return(0); 
....................    } 
....................    #endif 
....................    y = x; 
....................  
....................    if (y != 1.0) 
....................    { 
.................... #if !defined(__PCD__) 
....................     *((unsigned int8 *)(&y)) = 0x7E;  
.................... #endif 
....................  
.................... #if defined(__PCD__) // Takes care of IEEE format 
....................    data2 = *(((unsigned int8 *)(&y))+3); 
....................    *(((unsigned int8 *)(&y))+3) = 0x3F; 
....................    data1 = *(((unsigned int8 *)(&y))+2); 
....................    bit_clear(data1,7); 
....................    *(((unsigned int8 *)(&y))+2) = data1; 
....................    if(bit_test(data2,7)) 
....................      bit_set(*(((unsigned int8 *)(&y))+3),7); 
.................... #endif 
....................  
....................       y = (y - 1.0)/(y + 1.0); 
....................  
....................       y2=y*y; 
....................  
....................       res = pl[0]*y2 + pl[1]; 
....................  
....................       r = ql[0]*y2 + ql[1]; 
....................       r = r*y2 + 1.0; 
....................  
....................       res = y*res/r; 
.................... #if !defined(__PCD__) 
....................       n = *((unsigned int8 *)(&x)) - 0x7E; 
.................... #endif 
.................... #if defined(__PCD__)  
....................     data1 = *(((unsigned int8 *)(&x)+3)); 
....................     rotate_left(&data1,1); 
....................     data2 = *(((unsigned int8 *)(&x)+2)); 
....................     if(bit_test (data2,7)) 
....................       bit_set(data1,0); 
....................     n = data1 - 0x7E; 
.................... #endif 
....................  
....................       if (n<0)  
....................          r = -(float32)-n; 
....................       else 
....................          r = (float32)n; 
....................  
....................       res += r*LN2; 
....................    } 
....................  
....................    else 
....................       res = 0.0; 
....................  
....................    return(res); 
.................... } 
....................  
.................... //Overloaded function for log() for PCD 
.................... // Overloaded function log() for data type - Float48 
.................... #if defined(__PCD__) 
.................... // Overloaded function log() for data type - float64 
.................... float64 const pl_64[4] = {-0.145694052150681, 1.365485300000370, 
....................                           -3.120535668274329, 2.000000000000000}; 
....................  
.................... float64 const ql_64[4] = {0.006047500465908, -0.208298281937234, 
....................                           1.113943039156721, -1.893601167470470}; 
....................  
.................... float48 log(float48 x) 
.................... { 
....................    float48 y, res, r, y2; 
....................    unsigned int8  data1,data2; 
....................    signed int8 n; 
.................... #ifdef _ERRNO 
....................    if(x <0) 
....................    { 
....................       errno=EDOM; 
....................    } 
....................    if(x ==0) 
....................    { 
....................       errno=ERANGE; 
....................       return(0); 
....................    } 
.................... #endif 
....................    y = x; 
....................  
....................    if (y != 1.0) 
....................    { 
....................  
.................... #if !defined(__PCD__) 
....................       *((unsigned int8 *)(&y)) = 0x7E;  
.................... #endif 
....................       data2 = *(((unsigned int8 *)(&y))+5); 
....................       *(((unsigned int8 *)(&y))+5) = 0x3F; 
....................       data1 = *(((unsigned int8 *)(&y))+4); 
....................       bit_clear(data1,7); 
....................       *(((unsigned int8 *)(&y))+4) = data1; 
....................  
....................       if(bit_test(data2,7)) 
....................       bit_set(*(((unsigned int8 *)(&y))+4),7); 
....................       y = (y - 1.0)/(y + 1.0); 
....................  
....................       y2=y*y; 
....................  
....................       res = pl_64[0]*y2 + pl_64[1]; 
....................       res = res*y2 + pl_64[2]; 
....................       res = res*y2 + pl_64[3]; 
....................  
....................       r = ql_64[0]*y2 + ql_64[1]; 
....................       r = r*y2 + ql_64[2]; 
....................       r = r*y2 + ql_64[3]; 
....................       r = r*y2 + 1.0;  
....................       res = y*res/r; 
....................  
....................       data1 = *(((unsigned int8 *)(&x)+5)); 
....................       rotate_left(&data1,1); 
....................       data2 = *(((unsigned int8 *)(&x)+4)); 
....................       if(bit_test (data2,7)) 
....................       bit_set(data1,0); 
....................        
....................       n = data1 - 0x7E; 
....................  
....................       if (n<0) 
....................       r = -(float48)-n; 
....................       else 
....................       r = (float48)n; 
....................  
....................       res += r*LN2; 
....................    } 
....................  
....................    else 
....................    res = 0.0; 
....................  
....................    return(res); 
.................... } 
....................  
.................... float64 log(float64 x) 
.................... { 
....................    float64 y, res, r, y2; 
....................    unsigned int16  data1,data2; 
....................    unsigned int16 *p; 
....................    signed int16 n; 
....................    #ifdef _ERRNO 
....................    if(x <0) 
....................    { 
....................       errno=EDOM; 
....................    } 
....................    if(x ==0) 
....................    { 
....................       errno=ERANGE; 
....................       return(0); 
....................    } 
....................    #endif 
....................    y = x; 
....................  
....................    if (y != 1.0) 
....................    { 
....................    #if !defined(__PCD__) 
....................        *((unsigned int8 *)(&y)) = 0x7E;  
....................    #endif 
....................       p= (((unsigned int16 *)(&y))+3); 
....................       data1 = *p; 
....................       data2 = *p; 
....................       data1 = 0x3FE; 
....................       data1 = data1 <<4; 
....................       if(bit_test (data2,15)) 
....................          bit_set(data1,15); 
....................       data2 = data2 & 0x000F; 
....................       data1 ^=data2; 
....................  
....................       *p = data1; 
....................  
....................       y = (y - 1.0)/(y + 1.0); 
....................  
....................       y2=y*y; 
....................  
....................       res = pl_64[0]*y2 + pl_64[1]; 
....................       res = res*y2 + pl_64[2]; 
....................       res = res*y2 + pl_64[3]; 
....................  
....................       r = ql_64[0]*y2 + ql_64[1]; 
....................       r = r*y2 + ql_64[2]; 
....................       r = r*y2 + ql_64[3]; 
....................       r = r*y2 + 1.0; 
....................  
....................       res = y*res/r; 
....................   
....................       p= (((unsigned int16 *)(&x))+3); 
....................       data1 = *p; 
....................       bit_clear(data1,15); 
....................       data1 = data1 >>4;     
....................       n = data1 - 0x3FE; 
....................  
....................  
....................       if (n<0) 
....................          r = -(float64)-n; 
....................       else 
....................          r = (float64)n; 
....................  
....................       res += r*LN2; 
....................    } 
....................  
....................    else 
....................       res = 0.0; 
....................  
....................    return(res); 
.................... } 
.................... #endif 
....................  
....................  
.................... #define LN10 2.3025850929940456 
.................... #define LN10_INV 0.4342944819032518276 
....................  
.................... //////////////////////////////////////////////////////////////////////////// 
.................... //   float log10(float x) 
.................... //////////////////////////////////////////////////////////////////////////// 
.................... // Description : returns the the log base 10 of x 
.................... // Date : N/A 
.................... // 
.................... float32 log10(float32 x) 
.................... { 
....................    float32 r; 
....................  
....................    r = log(x); 
....................    r = r*LN10_INV; 
....................    return(r); 
.................... } 
....................  
.................... //Overloaded functions for log10() for PCD 
.................... // Overloaded function log10() for data type - Float48 
.................... #if defined(__PCD__) 
.................... float48 log10(float48 x) 
.................... { 
....................    float48 r; 
....................  
....................    r = log(x); 
....................    r = r*LN10_INV; 
....................    return(r); 
.................... } 
....................  
.................... // Overloaded function log10() for data type - Float64 
.................... float64 log10(float64 x) 
.................... { 
....................    float64 r; 
....................  
....................    r = log(x); 
....................    r = r*LN10_INV; 
....................    return(r); 
.................... } 
.................... #endif 
.................... //////////////////////////////////////////////////////////////////////////// 
.................... //   float modf(float x) 
.................... //////////////////////////////////////////////////////////////////////////// 
.................... // Description :breaks the argument value int integral and fractional parts, 
.................... // ach of which have the same sign as the argument.  It stores the integral part 
.................... // as a float in the object pointed to by the iptr 
.................... // Returns : returns the signed fractional part of value. 
.................... // Date : N/A 
.................... // 
....................  
.................... float32 modf(float32 value,float32 *iptr) 
.................... { 
....................    *iptr=(value < 0.0)? ceil(value): floor(value); 
....................    return(value - *iptr); 
.................... } 
.................... //Overloaded functions for modf() for PCD 
.................... // Overloaded function modf() for data type - Float48 
.................... #if defined(__PCD__) 
.................... float48 modf(float48 value,float48 *iptr) 
.................... { 
....................    *iptr=(value < 0.0)? ceil(value): floor(value); 
....................    return(value - *iptr); 
.................... } 
.................... // Overloaded function modf() for data type - Float64 
.................... float64 modf(float64 value,float64 *iptr) 
.................... { 
....................    *iptr=(value < 0.0)? ceil(value): floor(value); 
....................    return(value - *iptr); 
.................... } 
.................... #endif 
....................  
.................... //////////////////////////////////////////////////////////////////////////// 
.................... //   float pwr(float x,float y) 
.................... //////////////////////////////////////////////////////////////////////////// 
.................... // Description : returns the value (x^y) 
.................... // Date : N/A 
.................... // Note : 0 is returned when the function will generate an imaginary number 
.................... // 
.................... float32 pwr(float32 x,float32 y) 
.................... { 
....................    if(0 > x && fmod(y, 1) == 0) { 
....................       if(fmod(y, 2) == 0) { 
....................          return (exp(log(-x) * y)); 
....................       } else { 
....................          return (-exp(log(-x) * y)); 
....................       } 
....................    } else if(0 > x && fmod(y, 1) != 0) { 
....................       return 0; 
....................    } else { 
....................       if(x != 0 || 0 >= y) { 
....................          return (exp(log(x) * y)); 
....................       } 
....................    } 
.................... } 
.................... //Overloaded functions for pwr() for PCD 
.................... // Overloaded function pwr() for data type - Float48 
.................... #if defined(__PCD__) 
.................... float48 pwr(float48 x,float48 y) 
.................... { 
....................    if(0 > x && fmod(y, 1) == 0) { 
....................       if(fmod(y, 2) == 0) { 
....................          return (exp(log(-x) * y)); 
....................       } else { 
....................          return (-exp(log(-x) * y)); 
....................       } 
....................    } else if(0 > x && fmod(y, 1) != 0) { 
....................       return 0; 
....................    } else { 
....................       if(x != 0 || 0 >= y) { 
....................          return (exp(log(x) * y)); 
....................       } 
....................    } 
.................... } 
.................... // Overloaded function pwr() for data type - Float64 
.................... float64 pwr(float64 x,float64 y) 
.................... { 
....................    if(0 > x && fmod(y, 1) == 0) { 
....................       if(fmod(y, 2) == 0) { 
....................          return (exp(log(-x) * y)); 
....................       } else { 
....................          return (-exp(log(-x) * y)); 
....................       } 
....................    } else if(0 > x && fmod(y, 1) != 0) { 
....................       return 0; 
....................    } else { 
....................       if(x != 0 || 0 >= y) { 
....................          return (exp(log(x) * y)); 
....................       } 
....................    } 
.................... } 
.................... #endif 
....................  
.................... //////////////////// Power functions //////////////////// 
....................  
.................... //////////////////////////////////////////////////////////////////////////// 
.................... //   float pow(float x,float y) 
.................... //////////////////////////////////////////////////////////////////////////// 
.................... // Description : returns the value (x^y) 
.................... // Date : N/A 
.................... // Note : 0 is returned when the function will generate an imaginary number 
.................... // 
.................... float32 pow(float32 x,float32 y) 
.................... { 
....................    if(0 > x && fmod(y, 1) == 0) { 
....................       if(fmod(y, 2) == 0) { 
....................          return (exp(log(-x) * y)); 
....................       } else { 
....................          return (-exp(log(-x) * y)); 
....................       } 
....................    } else if(0 > x && fmod(y, 1) != 0) { 
....................       return 0; 
....................    } else { 
....................       if(x != 0 || 0 >= y) { 
....................          return (exp(log(x) * y)); 
....................       } 
....................    } 
.................... } 
.................... //Overloaded functions for pow() for PCD 
.................... // Overloaded function for pow() data type - Float48 
.................... #if defined(__PCD__) 
.................... float48 pow(float48 x,float48 y) 
.................... { 
....................    if(0 > x && fmod(y, 1) == 0) { 
....................       if(fmod(y, 2) == 0) { 
....................          return (exp(log(-x) * y)); 
....................       } else { 
....................          return (-exp(log(-x) * y)); 
....................       } 
....................    } else if(0 > x && fmod(y, 1) != 0) { 
....................       return 0; 
....................    } else { 
....................       if(x != 0 || 0 >= y) { 
....................          return (exp(log(x) * y)); 
....................       } 
....................    } 
.................... } 
....................  
.................... // Overloaded function pow() for data type - Float64 
.................... float64 pow(float64 x,float64 y) 
.................... { 
....................    if(0 > x && fmod(y, 1) == 0) { 
....................       if(fmod(y, 2) == 0) { 
....................          return (exp(log(-x) * y)); 
....................       } else { 
....................          return (-exp(log(-x) * y)); 
....................       } 
....................    } else if(0 > x && fmod(y, 1) != 0) { 
....................       return 0; 
....................    } else { 
....................       if(x != 0 || 0 >= y) { 
....................          return (exp(log(x) * y)); 
....................       } 
....................    } 
.................... } 
.................... #endif 
....................  
.................... //////////////////////////////////////////////////////////////////////////// 
.................... //   float sqrt(float x) 
.................... //////////////////////////////////////////////////////////////////////////// 
.................... // Description : returns the square root of x 
.................... // Date : N/A 
.................... // 
.................... float32 sqrt(float32 x) 
.................... { 
....................    float32 y, res; 
....................    #if defined(__PCD__) 
....................    unsigned int16 data1,data2; 
....................    #endif 
....................    unsigned int8 *p; 
....................  
....................    #ifdef _ERRNO 
....................    if(x < 0) 
....................    { 
....................       errno=EDOM; 
....................    } 
....................    #endif 
....................  
....................    if( x<=0.0) 
....................       return(0.0); 
....................  
....................    y=x; 
....................     
....................    #if !defined(__PCD__) 
....................     p=&y; 
....................    (*p)=(unsigned int8)((((unsigned int16)(*p)) + 127) >> 1); 
....................    #endif 
....................     
....................    #if defined(__PCD__) 
....................     p = (((unsigned int8 *)(&y))+3); 
....................     data1 = *(((unsigned int8 *)(&y))+3); 
....................     data2 = *(((unsigned int8 *)(&y))+2); 
....................     rotate_left(&data1,1);     
....................     if(bit_test(data2,7))     
....................        bit_set(data1,0);     
....................     data1 = ((data1+127) >>1); 
....................     bit_clear(data2,7); 
....................     if(bit_test(data1,0)) 
....................        bit_set(data2,7); 
....................     data1 = data1 >>1; 
....................     *(((unsigned int8 *)(&y))+3) = data1; 
....................     *(((unsigned int8 *)(&y))+2) = data2; 
....................      
....................   #endif 
....................  
....................    do { 
....................       res=y; 
....................       y+=(x/y); 
....................  
....................       #if !defined(__PCD__) 
....................      (*p)--; 
....................    #endif 
....................     
....................    #if defined(__PCD__) 
....................     data1 = *(((unsigned int8 *)(&y))+3); 
....................     data2 = *(((unsigned int8 *)(&y))+2); 
....................     rotate_left(&data1,1); 
....................     if(bit_test(data2,7)) 
....................        bit_set(data1,0);     
....................     data1--; 
....................     bit_clear(data2,7); 
....................     if(bit_test(data1,0)) 
....................        bit_set(data2,7); 
....................     data1 = data1 >>1; 
....................     *(((unsigned int8 *)(&y))+3) = data1; 
....................     *(((unsigned int8 *)(&y))+2) = data2; 
....................      
....................   #endif 
....................    } while(res != y); 
....................  
....................    return(res); 
.................... } 
.................... //Overloaded functions for sqrt() for PCD 
.................... // Overloaded function sqrt() for data type - Float48 
.................... #if defined(__PCD__) 
.................... float48 sqrt(float48 x) 
.................... { 
....................    float48 y, res; 
....................    unsigned int16 data1,data2; 
....................    unsigned int8 *p; 
....................  
....................    #ifdef _ERRNO 
....................    if(x < 0) 
....................    { 
....................       errno=EDOM; 
....................    } 
....................    #endif 
....................  
....................    if( x<=0.0) 
....................       return(0.0); 
....................  
....................    y=x; 
....................     
....................    #if !defined(__PCD__) 
....................     p=&y; 
....................    (*p)=(unsigned int8)((((unsigned int16)(*p)) + 127) >> 1); 
....................    #endif 
....................     
....................    #if defined(__PCD__) 
....................     p = (((unsigned int8 *)(&y))+5); 
....................     data1 = *(((unsigned int8 *)(&y))+5); 
....................     data2 = *(((unsigned int8 *)(&y))+4); 
....................     rotate_left(&data1,1); 
....................     if(bit_test(data2,7)) 
....................        bit_set(data1,0);     
....................     data1 = ((data1+127) >>1); 
....................     bit_clear(data2,7); 
....................     if(bit_test(data1,0)) 
....................        bit_set(data2,7); 
....................     data1 = data1 >>1; 
....................     *(((unsigned int8 *)(&y))+5) = data1; 
....................     *(((unsigned int8 *)(&y))+4) = data2; 
....................      
....................   #endif 
....................  
....................    do { 
....................       res=y; 
....................       y+=(x/y); 
....................  
....................       #if !defined(__PCD__) 
....................      (*p)--; 
....................    #endif 
....................     
....................     data1 = *(((unsigned int8 *)(&y))+5); 
....................     data2 = *(((unsigned int8 *)(&y))+4); 
....................     rotate_left(&data1,1); 
....................     if(bit_test(data2,7)) 
....................        bit_set(data1,0);     
....................     data1--; 
....................     bit_clear(data2,7); 
....................     if(bit_test(data1,0)) 
....................        bit_set(data2,7); 
....................     data1 = data1 >>1; 
....................     *(((unsigned int8 *)(&y))+5) = data1; 
....................     *(((unsigned int8 *)(&y))+4) = data2; 
....................      
....................    } while(res != y); 
....................  
....................    return(res); 
.................... } 
....................  
.................... // Overloaded function sqrt() for data type - Float64 
.................... float64 sqrt(float64 x) 
.................... { 
....................    float64 y, res; 
....................    unsigned int16 *p; 
....................    unsigned int16 temp1,temp2; 
....................  
....................    #ifdef _ERRNO 
....................    if(x < 0) 
....................    { 
....................       errno=EDOM; 
....................    } 
....................    #endif 
....................  
....................    if( x<=0.0) 
....................       return(0.0); 
....................  
....................    y=x; 
....................    p= (((unsigned int16 *)(&y))+3); 
....................    temp1 = *p; 
....................    temp2 = *p; 
....................    bit_clear(temp1,15); 
....................    temp1 = (temp1>>4)+1023; 
....................    temp1 = temp1 >> 1; 
....................    temp1 = (temp1<<4) & 0xFFF0; 
....................    if(bit_test(temp2,15)) 
....................       bit_set(temp1,15); 
....................    temp2 = temp2 & 0x000F; 
....................    temp1 ^= temp2; 
....................     
....................    (*p) = temp1; 
....................     
....................    do { 
....................       res=y; 
....................       y+=(x/y); 
....................      temp1 = *p; 
....................      temp2 = *p; 
....................      bit_clear(temp1,15); 
....................      temp1 = (temp1>>4); 
....................      temp1--; 
....................      temp1 = (temp1<<4) & 0xFFF0; 
....................      if(bit_test(temp2,15)) 
....................         bit_set(temp1,15); 
....................      temp2 = temp2 & 0x000F; 
....................      temp1 ^= temp2; 
....................      (*p) = temp1; 
....................  
....................    } while(res != y); 
....................  
....................    return(res); 
.................... } 
.................... #endif 
....................  
.................... ////////////////////////////// Trig Functions ////////////////////////////// 
.................... #ifdef PI_DIV_BY_TWO_INV 
.................... #undef PI_DIV_BY_TWO_INV 
.................... #endif 
.................... #define PI_DIV_BY_TWO_INV 0.63661977236758134 
.................... #ifdef PI_DIV_BY_TWO 
.................... #undef PI_DIV_BY_TWO 
.................... #endif 
.................... #define PI_DIV_BY_TWO   1.5707963267948966 
.................... #ifdef TWOBYPI 
.................... #undef TWOBYPI 
.................... #endif 
.................... #define TWOBYPI          0.6366197723675813 
....................  
.................... //////////////////////////////////////////////////////////////////////////// 
.................... //   float cos(float x) 
.................... //////////////////////////////////////////////////////////////////////////// 
.................... // Description : returns the cosine value of the angle x, which is in radian 
.................... // Date : 9/20/2001 
.................... // 
.................... float32 cos(float32 x) 
.................... { 
....................    float32 y, t, t2 = 1.0; 
....................    unsigned int8 quad, i; 
....................    float32 frac; 
....................    float32 p[5] = {                    //by the series definition for cosine 
....................       -0.49999999456337096,            // sum ( ( (-1)^n * x^2n )/(2n)! ) 
....................        0.04166663896921267, 
....................       -0.00138883894522527, 
....................        0.00002476138231734, 
....................       -0.00000026070414770 
....................       //-0.00000000001147, 
....................       // 0.00000000000005 
....................    }; 
....................  
....................    if (x < 0) x = -x;                  // absolute value of input 
....................  
....................    quad = (unsigned int8)(x * PI_DIV_BY_TWO_INV);    // quadrant 
....................    frac = (x * PI_DIV_BY_TWO_INV) - quad;  // fractional part of input 
....................    quad = quad % 4;                    // quadrant (0 to 3) 
....................  
....................    if (quad == 0 || quad == 2) 
....................       t = frac * PI_DIV_BY_TWO; 
....................    else if (quad == 1) 
....................       t = (1-frac) * PI_DIV_BY_TWO; 
....................    else // should be 3 
....................       t = (frac-1) * PI_DIV_BY_TWO; 
....................  
....................    y = 1.0; 
....................    t = t * t; 
....................    for (i = 0; i <= 4; i++) 
....................    { 
....................       t2 = t2 * t; 
....................       y = y + p[i] * t2; 
....................    } 
....................  
....................    if (quad == 2 || quad == 1) 
....................       y = -y;  // correct sign 
....................  
....................    return (y); 
.................... } 
....................  
....................  
.................... //Overloaded functions for cos() for PCD 
.................... // Overloaded function cos() for data type - Float48 
.................... #if defined(__PCD__) 
.................... float48 cos(float48 x) 
.................... { 
....................    float48 y, t, t2 = 1.0; 
....................    unsigned int8 quad, i; 
....................    float48 frac; 
....................    float48 p[6] = {                    //by the series definition for cosine 
....................       -0.5,                            // sum ( ( (-1)^n * x^2n )/(2n)! ) 
....................        0.04166666666667, 
....................       -0.00138888888889, 
....................        0.00002480158730, 
....................       -0.00000027557319, 
....................        0.00000000208767, 
....................       //-0.00000000001147, 
....................       // 0.00000000000005 
....................    }; 
....................  
....................    if (x < 0) x = -x;                  // absolute value of input 
....................  
....................    quad = (unsigned int8)(x * PI_DIV_BY_TWO_INV);    // quadrant 
....................    frac = (x * PI_DIV_BY_TWO_INV) - quad;  // fractional part of input 
....................    quad = quad % 4;                    // quadrant (0 to 3) 
....................  
....................    if (quad == 0 || quad == 2) 
....................       t = frac * PI_DIV_BY_TWO; 
....................    else if (quad == 1) 
....................       t = (1-frac) * PI_DIV_BY_TWO; 
....................    else // should be 3 
....................       t = (frac-1) * PI_DIV_BY_TWO; 
....................  
....................    y = 0.999999999781; 
....................    t = t * t; 
....................    for (i = 0; i <= 5; i++) 
....................    { 
....................       t2 = t2 * t; 
....................       y = y + p[i] * t2; 
....................    } 
....................  
....................    if (quad == 2 || quad == 1) 
....................       y = -y;  // correct sign 
....................  
....................    return (y); 
.................... } 
....................  
.................... // Overloaded function cos() for data type - Float64 
.................... float64 cos(float64 x) 
.................... { 
....................    float64 y, t, t2 = 1.0; 
....................    unsigned int8 quad, i; 
....................    float64 frac; 
....................    float64 p_64[9] = {               //by the series definition for cosine 
....................      -0.49999999999998740,           // sum ( ( (-1)^n * x^2n )/(2n)! )              
....................       0.04166666666656518, 
....................      -0.00138888888851691, 
....................       0.00002480158658490, 
....................      -0.00000027557239796, 
....................       0.00000000208715031, 
....................      -0.00000000001126577, 
....................       0.00000000000000427, 
....................       0.00000000000000372}; 
....................  
....................    if (x < 0) x = -x;                  // absolute value of input 
....................  
....................    quad = (unsigned int8)(x * PI_DIV_BY_TWO_INV);    // quadrant 
....................    frac = (x * PI_DIV_BY_TWO_INV) - quad;  // fractional part of input 
....................    quad = quad % 4;                    // quadrant (0 to 3) 
....................  
....................    if (quad == 0 || quad == 2) 
....................       t = frac * PI_DIV_BY_TWO; 
....................    else if (quad == 1) 
....................       t = (1-frac) * PI_DIV_BY_TWO; 
....................    else // should be 3 
....................       t = (frac-1) * PI_DIV_BY_TWO; 
....................  
....................    y = 1.0; 
....................    t = t * t; 
....................    for (i = 0; i <= 8; i++) 
....................    { 
....................       t2 = t2 * t; 
....................       y = y + p_64[i] * t2; 
....................    } 
....................  
....................    if (quad == 2 || quad == 1) 
....................       y = -y;  // correct sign 
....................  
....................    return (y); 
.................... } 
....................  
.................... #endif 
....................  
.................... //////////////////////////////////////////////////////////////////////////// 
.................... //   float sin(float x) 
.................... //////////////////////////////////////////////////////////////////////////// 
.................... // Description : returns the sine value of the angle x, which is in radian 
.................... // Date : 9/20/2001 
.................... // 
.................... float32 sin(float32 x) 
.................... { 
....................    return cos(x - PI_DIV_BY_TWO); 
.................... } 
....................  
.................... //Overloaded functions for sin() for PCD 
.................... // Overloaded function sin() for data type - Float48 
.................... #if defined(__PCD__) 
.................... float48 sin(float48 x) 
.................... { 
....................    return cos(x - PI_DIV_BY_TWO); 
.................... } 
....................  
.................... // Overloaded function sin() for data type - Float48 
.................... float64 sin(float64 x) 
.................... { 
....................    return cos(x - PI_DIV_BY_TWO); 
.................... } 
.................... #endif 
....................  
.................... //////////////////////////////////////////////////////////////////////////// 
.................... //   float tan(float x) 
.................... //////////////////////////////////////////////////////////////////////////// 
.................... // Description : returns the tangent value of the angle x, which is in radian 
.................... // Date : 9/20/2001 
.................... // 
.................... float32 tan(float32 x) 
.................... { 
....................    float32 c, s; 
....................  
....................    c = cos(x); 
....................    if (c == 0.0) 
....................       return (1.0e+36); 
....................  
....................    s = sin(x); 
....................    return(s/c); 
.................... } 
.................... //Overloaded functions for tan() for PCD 
.................... // Overloaded function tan() for data type - Float48 
.................... #if defined(__PCD__) 
.................... float48 tan(float48 x) 
.................... { 
....................    float48 c, s; 
....................  
....................    c = cos(x); 
....................    if (c == 0.0) 
....................       return (1.0e+36); 
....................  
....................    s = sin(x); 
....................    return(s/c); 
.................... } 
....................  
.................... // Overloaded function tan() for data type - Float48 
.................... float64 tan(float64 x) 
.................... { 
....................    float64 c, s; 
....................  
....................    c = cos(x); 
....................    if (c == 0.0) 
....................       return (1.0e+36); 
....................  
....................    s = sin(x); 
....................    return(s/c); 
.................... } 
.................... #endif 
....................  
.................... float32 const pas[3] = {0.49559947, -4.6145309, 5.6036290}; 
.................... float32 const qas[3] = {1.0000000,  -5.5484666, 5.6036290}; 
....................  
.................... float32 ASIN_COS(float32 x, unsigned int8 n) 
.................... { 
....................    float32 y, res, r, y2; 
....................    int1 s; 
....................    #ifdef _ERRNO 
....................    if(x <-1 || x > 1) 
....................    { 
....................       errno=EDOM; 
....................    } 
....................    #endif 
....................    s = 0; 
....................    y = x; 
....................  
....................    if (x < 0) 
....................    { 
....................       s = 1; 
....................       y = -y; 
....................    } 
....................  
....................    if (y > 0.5) 
....................    { 
....................       y = sqrt((1.0 - y)*0.5); 
....................       n += 2; 
....................    } 
....................  
....................    y2=y*y; 
....................  
....................    res = pas[0]*y2 + pas[1]; 
....................    res = res*y2 + pas[2]; 
....................  
....................    r = qas[0]*y2 + qas[1]; 
....................    r = r*y2 + qas[2]; 
....................  
....................    res = y*res/r; 
....................  
....................    if (n & 2)     // |x| > 0.5 
....................       res = PI_DIV_BY_TWO - 2.0*res; 
....................    if (s) 
....................       res = -res; 
....................    if (n & 1)           // take arccos 
....................       res = PI_DIV_BY_TWO - res; 
....................  
....................    return(res); 
.................... } 
....................  
....................  
.................... //Overloaded functions for ASIN_COS() for PCD 
.................... // Overloaded function ASIN_COS() for data type - Float48 
.................... #if defined(__PCD__) 
.................... float48 ASIN_COS(float48 x, unsigned int8 n) 
.................... { 
....................    float48 y, res, r, y2; 
....................    int1 s; 
....................    #ifdef _ERRNO 
....................    if(x <-1 || x > 1) 
....................    { 
....................       errno=EDOM; 
....................    } 
....................    #endif 
....................    s = 0; 
....................    y = x; 
....................  
....................    if (x < 0) 
....................    { 
....................       s = 1; 
....................       y = -y; 
....................    } 
....................  
....................    if (y > 0.5) 
....................    { 
....................       y = sqrt((1.0 - y)*0.5); 
....................       n += 2; 
....................    } 
....................  
....................    y2=y*y; 
....................  
....................    res = pas[0]*y2 + pas[1]; 
....................    res = res*y2 + pas[2]; 
....................  
....................    r = qas[0]*y2 + qas[1]; 
....................    r = r*y2 + qas[2]; 
....................  
....................    res = y*res/r; 
....................  
....................    if (n & 2)     // |x| > 0.5 
....................       res = PI_DIV_BY_TWO - 2.0*res; 
....................    if (s) 
....................       res = -res; 
....................    if (n & 1)           // take arccos 
....................       res = PI_DIV_BY_TWO - res; 
....................  
....................    return(res); 
.................... } 
....................  
.................... // Overloaded function ASIN_COS() for data type - Float64 
.................... double pas_64[5]={1.000000000000000,-2.069938587724477,1.421444580548907, 
....................                  -0.360690137621842,0.024929451660228}; 
....................  
.................... double qas_64[5]={-2.236605254391134,1.719212122946451,-0.524122954476133, 
....................                    0.052808872045749,-0.000662536036570}; 
....................                     
.................... float64 ASIN_COS(float64 x, unsigned int8 n) 
.................... { 
....................    float64 y, res, r, y2; 
....................    int1 s; 
....................    #ifdef _ERRNO 
....................    if(x <-1 || x > 1) 
....................    { 
....................       errno=EDOM; 
....................    } 
....................    #endif 
....................    s = 0; 
....................    y = x; 
....................  
....................    if (x < 0) 
....................    { 
....................       s = 1; 
....................       y = -y; 
....................    } 
....................  
....................    if (y > 0.5) 
....................    { 
....................       y = sqrt((1.0 - y)*0.5); 
....................       n += 2; 
....................    } 
....................  
....................    y2=y*y; 
....................  
....................    res = pas_64[4]*y2 + pas_64[3]; 
....................    res = res*y2 + pas_64[2]; 
....................    res = res*y2 + pas_64[1]; 
....................    res = res*y2 + pas_64[0]; 
....................  
....................    r = qas_64[4]*y2 + qas_64[3]; 
....................    r = r*y2 + qas_64[2]; 
....................    r = r*y2 + qas_64[1]; 
....................    r = r*y2 + qas_64[0]; 
....................    r = r*y2 + 1.0; 
....................  
....................    res = y*res/r; 
....................  
....................    if (n & 2)     // |x| > 0.5 
....................       res = PI_DIV_BY_TWO - 2.0*res; 
....................    if (s) 
....................       res = -res; 
....................    if (n & 1)           // take arccos 
....................       res = PI_DIV_BY_TWO - res; 
....................  
....................    return(res); 
.................... } 
.................... #endif 
....................  
.................... //////////////////////////////////////////////////////////////////////////// 
.................... //   float asin(float x) 
.................... //////////////////////////////////////////////////////////////////////////// 
.................... // Description : returns the arcsine value of the value x. 
.................... // Date : N/A 
.................... // 
.................... float32 asin(float32 x) 
.................... { 
....................    float32 r; 
....................  
....................    r = ASIN_COS(x, 0); 
....................    return(r); 
.................... } 
.................... //Overloaded functions for asin() for PCD 
.................... // Overloaded function asin() for data type - Float48 
.................... #if defined(__PCD__) 
.................... float48 asin(float48 x) 
.................... { 
....................    float48 r; 
....................  
....................    r = ASIN_COS(x, 0); 
....................    return(r); 
.................... } 
....................  
.................... // Overloaded function asin() for data type - Float64 
.................... float64 asin(float64 x) 
.................... { 
....................    float64 r; 
....................  
....................    r = ASIN_COS(x, 0); 
....................    return(r); 
.................... } 
.................... #endif 
....................  
.................... //////////////////////////////////////////////////////////////////////////// 
.................... //   float acos(float x) 
.................... //////////////////////////////////////////////////////////////////////////// 
.................... // Description : returns the arccosine value of the value x. 
.................... // Date : N/A 
.................... // 
.................... float32 acos(float32 x) 
.................... { 
....................    float32 r; 
....................  
....................    r = ASIN_COS(x, 1); 
....................    return(r); 
.................... } 
.................... //Overloaded functions for acos() for PCD 
.................... // Overloaded function acos() for data type - Float48 
.................... #if defined(__PCD__) 
.................... float48 acos(float48 x) 
.................... { 
....................    float48 r; 
....................  
....................    r = ASIN_COS(x, 1); 
....................    return(r); 
.................... } 
....................  
.................... // Overloaded function acos() for data type - Float64 
.................... float64 acos(float64 x) 
.................... { 
....................    float64 r; 
....................  
....................    r = ASIN_COS(x, 1); 
....................    return(r); 
.................... } 
.................... #endif 
....................  
.................... float32 const pat[4] = {0.17630401, 5.6710795, 22.376096, 19.818457}; 
.................... float32 const qat[4] = {1.0000000,  11.368190, 28.982246, 19.818457}; 
....................  
.................... //////////////////////////////////////////////////////////////////////////// 
.................... //   float atan(float x) 
.................... //////////////////////////////////////////////////////////////////////////// 
.................... // Description : returns the arctangent value of the value x. 
.................... // Date : N/A 
.................... // 
.................... float32 atan(float32 x) 
.................... { 
....................    float32 y, res, r; 
....................    int1 s, flag; 
....................  
....................    s = 0; 
....................    flag = 0; 
....................    y = x; 
....................  
....................    if (x < 0) 
....................    { 
....................       s = 1; 
....................       y = -y; 
....................    } 
....................  
....................    if (y > 1.0) 
....................    { 
....................       y = 1.0/y; 
....................       flag = 1; 
....................    } 
....................  
....................    res = pat[0]*y*y + pat[1]; 
....................    res = res*y*y + pat[2]; 
....................    res = res*y*y + pat[3]; 
....................  
....................    r = qat[0]*y*y + qat[1]; 
....................    r = r*y*y + qat[2]; 
....................    r = r*y*y + qat[3]; 
....................  
....................    res = y*res/r; 
....................  
....................  
....................    if (flag)                              // for |x| > 1 
....................       res = PI_DIV_BY_TWO - res; 
....................    if (s) 
....................       res = -res; 
....................  
....................    return(res); 
.................... } 
.................... //Overloaded functions for atan() for PCD 
.................... // Overloaded function atan() for data type - Float48 
.................... #if defined(__PCD__) 
.................... float48 atan(float48 x) 
.................... { 
....................    float48 y, res, r; 
....................    int1 s, flag; 
....................  
....................    s = 0; 
....................    flag = 0; 
....................    y = x; 
....................  
....................    if (x < 0) 
....................    { 
....................       s = 1; 
....................       y = -y; 
....................    } 
....................  
....................    if (y > 1.0) 
....................    { 
....................       y = 1.0/y; 
....................       flag = 1; 
....................    } 
....................  
....................    res = pat[0]*y*y + pat[1]; 
....................    res = res*y*y + pat[2]; 
....................    res = res*y*y + pat[3]; 
....................  
....................    r = qat[0]*y*y + qat[1]; 
....................    r = r*y*y + qat[2]; 
....................    r = r*y*y + qat[3]; 
....................  
....................    res = y*res/r; 
....................  
....................  
....................    if (flag)                              // for |x| > 1 
....................       res = PI_DIV_BY_TWO - res; 
....................    if (s) 
....................       res = -res; 
....................  
....................    return(res); 
.................... } 
....................  
.................... float64 pat_64[6]={0.999999999999999,2.249923645595566,1.771541617806449, 
....................                    0.579678874003185,0.072162702162882,0.002281100141660}; 
....................  
.................... float64 qat_64[6]={2.583256978928510,2.432627277466967,1.016760379885393, 
....................                    0.182482977188688,0.011155377971690,0.000100013019160}; 
.................... // Overloaded function atan() for data type - Float64 
.................... float64 atan(float64 x) 
.................... { 
....................    float64 y,y2, res, r; 
....................    int1 s, flag; 
....................  
....................    s = 0; 
....................    flag = 0; 
....................    y = x; 
....................  
....................    if (x < 0) 
....................    { 
....................       s = 1; 
....................       y = -y; 
....................    } 
....................  
....................    if (y > 1.0) 
....................    { 
....................       y = 1.0/y; 
....................       flag = 1; 
....................    } 
....................    y2 = y*y; 
....................    res = pat_64[5]*y2 + pat_64[4]; 
....................    res = res*y2 + pat_64[3]; 
....................    res = res*y2 + pat_64[2]; 
....................    res = res*y2 + pat_64[1]; 
....................    res = res*y2 + pat_64[0]; 
....................  
....................    r = qat_64[5]*y2 + qat_64[4]; 
....................    r = r*y2 + qat_64[3]; 
....................    r = r*y2 + qat_64[2]; 
....................    r = r*y2 + qat_64[1]; 
....................    r = r*y2 + qat_64[0]; 
....................    r = r*y2 + 1.0; 
....................  
....................    res = y*res/r; 
....................  
....................  
....................    if (flag)                              // for |x| > 1 
....................       res = PI_DIV_BY_TWO - res; 
....................    if (s) 
....................       res = -res; 
....................  
....................    return(res); 
.................... } 
.................... #endif 
....................  
.................... ///////////////////////////////////////////////////////////////////////////// 
.................... //   float atan2(float y, float x) 
.................... ///////////////////////////////////////////////////////////////////////////// 
.................... // Description :computes the principal value of arc tangent of y/x, using the 
.................... // signs of both the arguments to determine the quadrant of the return value 
.................... // Returns : returns the arc tangent of y/x. 
.................... // Date : N/A 
.................... // 
....................  
.................... float32 atan2(float32 y,float32 x) 
.................... { 
....................    float32 z; 
....................    int1 sign; 
....................    unsigned int8 quad; 
....................    sign=0; 
....................    quad=0; //quadrant 
....................    quad=((y<=0.0)?((x<=0.0)?3:4):((x<0.0)?2:1)); 
....................    if(y<0.0) 
....................    { 
....................       sign=1; 
....................       y=-y; 
....................    } 
....................    if(x<0.0) 
....................    { 
....................       x=-x; 
....................    } 
....................    if (x==0.0) 
....................    { 
....................       if(y==0.0) 
....................       { 
....................       #ifdef _ERRNO 
....................       { 
....................          errno=EDOM; 
....................       } 
....................       #endif 
....................       } 
....................       else 
....................       { 
....................          if(sign) 
....................          { 
....................          return (-(PI_DIV_BY_TWO)); 
....................          } 
....................          else 
....................          { 
....................          return (PI_DIV_BY_TWO); 
....................          } 
....................       } 
....................    } 
....................    else 
....................    { 
....................       z=y/x; 
....................       switch(quad) 
....................       { 
....................          case 1: 
....................          { 
....................             return atan(z); 
....................             break; 
....................          } 
....................          case 2: 
....................          { 
.................... //            return (atan(z)+PI_DIV_BY_TWO);  //2L3122 
....................             return (PI-atan(z)); 
....................             break; 
....................          } 
....................          case 3: 
....................          { 
....................             return (atan(z)-PI); 
....................             break; 
....................          } 
....................          case 4: 
....................          { 
....................             return (-atan(z)); 
....................             break; 
....................          } 
....................       } 
....................    } 
.................... } 
....................  
.................... //Overloaded functions for atan2() for PCD 
.................... // Overloaded function atan2() for data type - Float48 
.................... #if defined(__PCD__) 
.................... float48 atan2(float48 y,float48 x) 
.................... { 
....................    float48 z; 
....................    int1 sign; 
....................    unsigned int8 quad; 
....................    sign=0; 
....................    quad=0; //quadrant 
....................    quad=((y<=0.0)?((x<=0.0)?3:4):((x<0.0)?2:1)); 
....................    if(y<0.0) 
....................    { 
....................       sign=1; 
....................       y=-y; 
....................    } 
....................    if(x<0.0) 
....................    { 
....................       x=-x; 
....................    } 
....................    if (x==0.0) 
....................    { 
....................       if(y==0.0) 
....................       { 
....................       #ifdef _ERRNO 
....................       { 
....................          errno=EDOM; 
....................       } 
....................       #endif 
....................       } 
....................       else 
....................       { 
....................          if(sign) 
....................          { 
....................          return (-(PI_DIV_BY_TWO)); 
....................          } 
....................          else 
....................          { 
....................          return (PI_DIV_BY_TWO); 
....................          } 
....................       } 
....................    } 
....................    else 
....................    { 
....................       z=y/x; 
....................       switch(quad) 
....................       { 
....................          case 1: 
....................          { 
....................             return atan(z); 
....................             break; 
....................          } 
....................          case 2: 
....................          { 
.................... //            return (atan(z)+PI_DIV_BY_TWO);  //2L3122 
....................             return (PI-atan(z)); 
....................             break; 
....................          } 
....................          case 3: 
....................          { 
....................             return (atan(z)-PI); 
....................             break; 
....................          } 
....................          case 4: 
....................          { 
....................             return (-atan(z)); 
....................             break; 
....................          } 
....................       } 
....................    } 
.................... } 
....................  
.................... // Overloaded function atan2() for data type - Float64 
.................... float64 atan2(float64 y,float64 x) 
.................... { 
....................    float64 z; 
....................    int1 sign; 
....................    unsigned int8 quad; 
....................    sign=0; 
....................    quad=0; //quadrant 
....................    quad=((y<=0.0)?((x<=0.0)?3:4):((x<0.0)?2:1)); 
....................    if(y<0.0) 
....................    { 
....................       sign=1; 
....................       y=-y; 
....................    } 
....................    if(x<0.0) 
....................    { 
....................       x=-x; 
....................    } 
....................    if (x==0.0) 
....................    { 
....................       if(y==0.0) 
....................       { 
....................       #ifdef _ERRNO 
....................       { 
....................          errno=EDOM; 
....................       } 
....................       #endif 
....................       } 
....................       else 
....................       { 
....................          if(sign) 
....................          { 
....................          return (-(PI_DIV_BY_TWO)); 
....................          } 
....................          else 
....................          { 
....................          return (PI_DIV_BY_TWO); 
....................          } 
....................       } 
....................    } 
....................    else 
....................    { 
....................       z=y/x; 
....................       switch(quad) 
....................       { 
....................          case 1: 
....................          { 
....................             return atan(z); 
....................             break; 
....................          } 
....................          case 2: 
....................          { 
.................... //            return (atan(z)+PI_DIV_BY_TWO);  //2L3122 
....................             return (PI-atan(z)); 
....................             break; 
....................          } 
....................          case 3: 
....................          { 
....................             return (atan(z)-PI); 
....................             break; 
....................          } 
....................          case 4: 
....................          { 
....................             return (-atan(z)); 
....................             break; 
....................          } 
....................       } 
....................    } 
.................... } 
.................... #endif 
....................  
.................... //////////////////// Hyperbolic functions //////////////////// 
....................  
.................... //////////////////////////////////////////////////////////////////////////// 
.................... //   float cosh(float x) 
.................... //////////////////////////////////////////////////////////////////////////// 
.................... // Description : Computes the hyperbolic cosine value of x 
.................... // Returns : returns the hyperbolic cosine value of x 
.................... // Date : N/A 
.................... // 
....................  
.................... float32 cosh(float32 x) 
.................... { 
....................    return ((exp(x)+exp(-x))*0.5); 
.................... } 
.................... //Overloaded functions for cosh() for PCD 
.................... // Overloaded function cosh() for data type - Float48 
.................... #if defined(__PCD__) 
.................... float48 cosh(float48 x) 
.................... { 
....................    return ((exp(x)+exp(-x))*0.5); 
.................... } 
....................  
.................... // Overloaded function cosh() for data type - Float64 
.................... float64 cosh(float64 x) 
.................... { 
....................    return ((exp(x)+exp(-x))*0.5); 
.................... } 
.................... #endif 
....................  
.................... //////////////////////////////////////////////////////////////////////////// 
.................... //   float sinh(float x) 
.................... //////////////////////////////////////////////////////////////////////////// 
.................... // Description : Computes the hyperbolic sine value of x 
.................... // Returns : returns the hyperbolic sine value of x 
.................... // Date : N/A 
.................... // 
....................  
.................... float32 sinh(float32 x) 
.................... { 
....................  
....................    return ((exp(x) - exp(-x))*0.5); 
.................... } 
.................... //Overloaded functions for sinh() for PCD 
.................... // Overloaded function sinh() for data type - Float48 
.................... #if defined(__PCD__) 
.................... float48 sinh(float48 x) 
.................... { 
....................  
....................    return ((exp(x) - exp(-x))*0.5); 
.................... } 
....................  
.................... // Overloaded function sinh() for data type - Float48 
.................... float64 sinh(float64 x) 
.................... { 
....................  
....................    return ((exp(x) - exp(-x))*0.5); 
.................... } 
.................... #endif 
....................  
.................... //////////////////////////////////////////////////////////////////////////// 
.................... //   float tanh(float x) 
.................... //////////////////////////////////////////////////////////////////////////// 
.................... // Description : Computes the hyperbolic tangent value of x 
.................... // Returns : returns the hyperbolic tangent value of x 
.................... // Date : N/A 
.................... // 
....................  
.................... float32 tanh(float32 x) 
.................... { 
....................    return(sinh(x)/cosh(x)); 
.................... } 
.................... //Overloaded functions for tanh() for PCD 
.................... // Overloaded function tanh() for data type - Float48 
.................... #if defined(__PCD__) 
.................... float48 tanh(float48 x) 
.................... { 
....................    return(sinh(x)/cosh(x)); 
.................... } 
....................  
.................... // Overloaded function tanh() for data type - Float64 
.................... float64 tanh(float64 x) 
.................... { 
....................    return(sinh(x)/cosh(x)); 
.................... } 
.................... #endif 
....................  
.................... //////////////////////////////////////////////////////////////////////////// 
.................... //   float frexp(float x, signed int *exp) 
.................... //////////////////////////////////////////////////////////////////////////// 
.................... // Description : breaks a floating point number into a normalized fraction and an integral 
.................... // power of 2. It stores the integer in the signed int object pointed to by exp. 
.................... // Returns : returns the value x, such that x is a double with magnitude in the interval 
.................... // [1/2,1) or zero, and value equals x times 2 raised to the power *exp.If value is zero, 
.................... // both parts of the result are zero. 
.................... // Date : N/A 
.................... // 
....................  
.................... #define LOG2 .30102999566398119521 
.................... #define LOG2_INV 3.32192809488736234787 
.................... float32 frexp(float32 x, signed int8 *exp) 
.................... { 
....................    float32 res; 
....................    int1 sign = 0; 
....................    if(x == 0.0) 
....................    { 
....................       *exp=0; 
....................       return (0.0); 
....................    } 
....................    if(x < 0.0) 
....................    { 
....................      x=-x; 
....................      sign=1; 
....................    } 
....................    if (x > 1.0) 
....................    { 
....................       *exp=(ceil(log10(x)*LOG2_INV)); 
....................       res=x/(pow(2, *exp)); 
....................       if (res == 1) 
....................       { 
....................          *exp=*exp+1; 
....................           res=.5; 
....................       } 
....................    } 
....................    else 
....................    { 
....................       if(x < 0.5) 
....................       { 
....................          *exp=-1; 
....................          res=x*2; 
....................       } 
....................       else 
....................       { 
....................          *exp=0; 
....................           res=x; 
....................       } 
....................    } 
....................    if(sign) 
....................    { 
....................       res=-res; 
....................    } 
....................    return res; 
.................... } 
....................  
.................... //Overloaded functions for frexp() for PCD 
.................... // Overloaded function frexp() for data type - Float48 
.................... #if defined(__PCD__) 
.................... float48 frexp(float48 x, signed int8 *exp) 
.................... { 
....................    float48 res; 
....................    int1 sign = 0; 
....................    if(x == 0.0) 
....................    { 
....................       *exp=0; 
....................       return (0.0); 
....................    } 
....................    if(x < 0.0) 
....................    { 
....................      x=-x; 
....................      sign=1; 
....................    } 
....................    if (x > 1.0) 
....................    { 
....................       *exp=(ceil(log10(x)*LOG2_INV)); 
....................       res=x/(pow(2, *exp)); 
....................       if (res == 1) 
....................       { 
....................          *exp=*exp+1; 
....................           res=.5; 
....................       } 
....................    } 
....................    else 
....................    { 
....................       if(x < 0.5) 
....................       { 
....................          *exp=-1; 
....................          res=x*2; 
....................       } 
....................       else 
....................       { 
....................          *exp=0; 
....................           res=x; 
....................       } 
....................    } 
....................    if(sign) 
....................    { 
....................       res=-res; 
....................    } 
....................    return res; 
.................... } 
....................  
.................... // Overloaded function frexp() for data type - Float64 
.................... float64 frexp(float64 x, signed int8 *exp) 
.................... { 
....................    float64 res; 
....................    int1 sign = 0; 
....................    if(x == 0.0) 
....................    { 
....................       *exp=0; 
....................       return (0.0); 
....................    } 
....................    if(x < 0.0) 
....................    { 
....................      x=-x; 
....................      sign=1; 
....................    } 
....................    if (x > 1.0) 
....................    { 
....................       *exp=(ceil(log10(x)*LOG2_INV)); 
....................       res=x/(pow(2, *exp)); 
....................       if (res == 1) 
....................       { 
....................          *exp=*exp+1; 
....................           res=.5; 
....................       } 
....................    } 
....................    else 
....................    { 
....................       if(x < 0.5) 
....................       { 
....................          *exp=-1; 
....................          res=x*2; 
....................       } 
....................       else 
....................       { 
....................          *exp=0; 
....................           res=x; 
....................       } 
....................    } 
....................    if(sign) 
....................    { 
....................       res=-res; 
....................    } 
....................    return res; 
.................... } 
.................... #endif 
....................  
.................... ////////////////////////////////////////////////////////////////////////////// 
.................... //   float ldexp(float x, signed int *exp) 
.................... ////////////////////////////////////////////////////////////////////////////// 
.................... // Description : multiplies a floating point number by an integral power of 2. 
.................... // Returns : returns the value of x times 2 raised to the power exp. 
.................... // Date : N/A 
.................... // 
....................  
.................... float32 ldexp(float32 value, signed int8 exp) 
.................... { 
....................    return (value * pow(2,exp)); 
.................... } 
.................... //Overloaded functions for ldexp() for PCD 
.................... // Overloaded function ldexp() for data type - Float48 
....................  
.................... #if defined(__PCD__) 
.................... float48 ldexp(float48 value, signed int8 exp) 
.................... { 
....................    return (value * pow(2,exp)); 
.................... } 
.................... // Overloaded function ldexp() for data type - Float64 
.................... float64 ldexp(float64 value, signed int8 exp) 
.................... { 
....................    return (value * pow(2,exp)); 
.................... } 
.................... #endif 
....................  
.................... #endif 
....................  
.................... #use delay(clock=4000000) 
*
0012:  MOVLW  2D
0013:  MOVWF  04
0014:  BCF    03.7
0015:  MOVF   00,W
0016:  BTFSC  03.2
0017:  GOTO   026
0018:  MOVLW  01
0019:  MOVWF  78
001A:  CLRF   77
001B:  DECFSZ 77,F
001C:  GOTO   01B
001D:  DECFSZ 78,F
001E:  GOTO   01A
001F:  MOVLW  4A
0020:  MOVWF  77
0021:  DECFSZ 77,F
0022:  GOTO   021
0023:  GOTO   024
0024:  DECFSZ 00,F
0025:  GOTO   018
0026:  RETURN
.................... void lcd_init(void); 				// Ham dung de khoi dong C.LCD. 
.................... byte lcd_read_byte(void);			// Ham xu ly doc thong tin (dang 8 bit) tu thong tin dang 4 bit tu C.LCD. 
.................... byte lcd_read_nibble(void);			// Ham doc thong tin (dang 4 bit / nibble) tu C.LCD. 
.................... void lcd_send_byte(byte address, byte n);	// Ham gui thong tin (byte) toi C.LCD tai dia chi (address). 
.................... void lcd_send_nibble(byte n);		// Ham gui thong tin (dang 4 bit / nibble) sang C.LCD. 
.................... void lcd_gotoxy(byte x, byte y);	// Ham thiet lap vi tri ghi tren C.LCD. 
.................... char lcd_getc(byte x, byte y);		// Ham tra ve ky tu tai vi tri (x,y) tren C.LCD. 
.................... void lcd_putc(char c);				// Ham se hien thi ky tu c tai vi tri ke tiep tren C.LCD. 
.................... // Khai bao bien. 
.................... // Dinh nghia cac thong so. 
.................... #define LCD_RS_PIN 	  		PIN_D1	// Cac ket noi C.LCD voi vi dieu khien. 
.................... #define LCD_RW_PIN      	PIN_D2 
.................... #define LCD_ENABLE_PIN  	PIN_D3 
.................... #define LCD_DATA4       	PIN_D4 
.................... #define LCD_DATA5       	PIN_D5 
.................... #define LCD_DATA6       	PIN_D6 
.................... #define LCD_DATA7       	PIN_D7  
.................... /* 
.................... #define LCD_RS_PIN 	  		PIN_C5	// Cac ket noi C.LCD voi vi dieu khien. 
.................... #define LCD_RW_PIN      	PIN_C6 
.................... #define LCD_ENABLE_PIN  	PIN_C7 
.................... #define LCD_DATA4       	PIN_D4 
.................... #define LCD_DATA5       	PIN_D5 
.................... #define LCD_DATA6       	PIN_D6 
.................... #define LCD_DATA7       	PIN_D7   
.................... */ 
.................... /* 
.................... #define LCD_RS_PIN 	  	PIN_D1	// Cac ket noi C.LCD voi vi dieu khien. 
.................... #define LCD_RW_PIN      PIN_D2 
.................... #define LCD_ENABLE_PIN  PIN_D3 
.................... #define LCD_DATA4       PIN_D4 
.................... #define LCD_DATA5       PIN_D5 
.................... #define LCD_DATA6       PIN_D6 
.................... #define LCD_DATA7       PIN_D7   
.................... */ 
.................... #define lcd_output_enable(x)	output_bit(LCD_ENABLE_PIN, x)	// Lenh dieu khien chan LCD_ENABLE_PIN. 
.................... #define lcd_enable_tris()	output_drive(LCD_ENABLE_PIN) 
....................  
.................... #define lcd_output_rs(x)	output_bit(LCD_RS_PIN, x)	// Lenh dieu khien chan LCD_RS_PIN. 
.................... #define lcd_rs_tris()		output_drive(LCD_RS_PIN) 
....................  
.................... #define lcd_output_rw(x)	output_bit(LCD_RW_PIN, x)	// Lenh dieu khien chan LCD_RW_PIN 
.................... #define lcd_rw_tris()		output_drive(LCD_RW_PIN) 
....................  
.................... #define lcd_line_one	0x00    // Dia chi RAM C.LCD cho hang thu 1. 
.................... #define lcd_line_two	0x40    // Dia chi RAM C.LCD cho hang thu 2. 
.................... #define lcd_line_three	0x14 
.................... #define lcd_line_four	0x54 
.................... #define LCD_TYPE 0x02           // Thong tin cau hinh C.LCD: 0x00=5x7, 0x01=5x10, 0x02=2 lines 
....................  
.................... // Dinh nghia cac hang so. 
.................... byte const LCD_INIT_STRING[4] = {0x28 | (LCD_TYPE << 2), 0x0C, 0x01, 0x06}; 
....................         // Cac byte nay can thiet de gui toi C.LCD, dung de khoi dong cau hinh hoat dong cho C.LCD. 
.................... 		// Byte 1: 0x20 | (LCD_TYPE << 2) - So bit du lieu giao tiep (DL), so dong hien thi (N), kieu ky tu (F). 
.................... 		//			0 0 1 DL N F x x (DL: Data Length, N: Number Line, F: Font). 
.................... 			// Truong hop 1: 0x20 - 4 bit / 1 dong / 5 x 7. 
.................... 			// Truong hop 2: 0x24 - 4 bit / 1 dong / 5 x 10. 
.................... 			// Truong hop 3: 0x28 - 4 bit / 2 dong / 5 x 7. 
.................... 		// Byte 2: 0x0C - Dieu khien hien thi (Bat hien thi, tat con tro, tat nhap nhay con tro). 
.................... 		//			0 0 0 0 1 D C B (D: Display, C: Cursor, B: Blink). 
.................... 		// Byte 3: 0x01 - Xoa hien thi va tra con tro ve dau dong. 
.................... 		// Byte 4: 0x06 - Dat che do dau vao (Che do tang dia chi, tat dich chuyen hien thi). 
.................... 		//			0 0 0 0 0 1 I/D S (I/D: Increment/Decrement, S: Shift). 
.................... 		// Byte 5: .... - Doi con tro / hien thi. 
.................... 		//			0 0 0 1 S/C R/L x x (S/C: Screen/Cursor, R/L: Right/Left). 
....................  
.................... // *************************************************** 
.................... void lcd_init(void) 	// Ham dung de khoi dong C.LCD. 
.................... { 
.................... // Khai bao bien. 
.................... byte i; 
.................... // Dinh nghia ham. 
.................... output_drive(LCD_DATA4);	// Thiet lap chan port (Data) o che do ngo ra. 
*
0121:  BSF    03.5
0122:  BCF    08.4
.................... output_drive(LCD_DATA5); 
0123:  BCF    08.5
.................... output_drive(LCD_DATA6); 
0124:  BCF    08.6
.................... output_drive(LCD_DATA7); 
0125:  BCF    08.7
....................  
.................... lcd_enable_tris();			// Thiet lap chan port (Control: EN, RS, RW) o che do ngo ra. 
0126:  BCF    08.3
.................... lcd_rs_tris(); 
0127:  BCF    08.1
.................... lcd_rw_tris(); 
0128:  BCF    08.2
....................  
.................... lcd_output_rs(0);			// RS = 0 - Databus = Bus lenh. 
0129:  BCF    03.5
012A:  BCF    08.1
012B:  BSF    03.5
012C:  BCF    08.1
.................... lcd_output_rw(0);			// RW = 0 - Ghi thong tin vao C.LCD. 
012D:  BCF    03.5
012E:  BCF    08.2
012F:  BSF    03.5
0130:  BCF    08.2
.................... lcd_output_enable(0);		// EN = 0 - Cam truy xuat C.LCD. 
0131:  BCF    03.5
0132:  BCF    08.3
0133:  BSF    03.5
0134:  BCF    08.3
....................  
.................... delay_ms(15);	// Tao thoi gian tre 15ms (Thoi gian de LCD tu reset khi moi duoc cap nguon). 
0135:  MOVLW  0F
0136:  BCF    03.5
0137:  MOVWF  2D
0138:  CALL   012
....................  
.................... for(i=1;i<=3;i++)			// Doan lenh khoi dong C.LCD o che do 8 bit duoc thuc hien 3 lan lien tiep 
0139:  MOVLW  01
013A:  MOVWF  29
013B:  MOVF   29,W
013C:  SUBLW  03
013D:  BTFSS  03.0
013E:  GOTO   147
.................... 	{						// tai thoi diem ban dau (de dam bao cho C.LCD hoat dong on dinh trong  
.................... 	lcd_send_nibble(0x03); 	// truong hop khi cung cap nguon cho C.LCD ma dien ap nguon tang len cham). 
013F:  MOVLW  03
0140:  MOVWF  34
0141:  CALL   027
.................... 	delay_ms(5);			// RS = 0, RW = 0, D7 - D4 = 0011 (0x03) -> DL = 1 (8 bit). 
0142:  MOVLW  05
0143:  MOVWF  2D
0144:  CALL   012
0145:  INCF   29,F
0146:  GOTO   13B
.................... 	}						// Do co BF (Busy Flag) chua kiem tra duoc trong thoi diem nay, nen phai  
.................... 							// thuc hien 3 lan (xem luu do khoi dong C.LCD cua nha san xuat). 
....................  
.................... lcd_send_nibble(0x02);		// Doan lenh khoi dong C.LCD o che do 4 bit. Tu luc nay thi 4 bit cao duoc ghi 
0147:  MOVLW  02
0148:  MOVWF  34
0149:  CALL   027
.................... 							// ra truoc tien, sau do la 4 bit thap. 
.................... 							// RS = 0, RW = 0, D7 - D4 = 0010 (0x02) -> DL = 0 (4 bit). 
.................... 							// Co BF (Busy Flag) co the bat dau kiem tra duoc tu luc nay. 
....................  
.................... for(i=0;i<=3;i++) 
014A:  CLRF   29
014B:  MOVF   29,W
014C:  SUBLW  03
014D:  BTFSS  03.0
014E:  GOTO   158
.................... 	lcd_send_byte(0,LCD_INIT_STRING[i]);	// Goi ham truyen thong tin (lenh) sang C.LCD. 
014F:  MOVF   29,W
0150:  CALL   004
0151:  MOVWF  2A
0152:  CLRF   31
0153:  MOVF   2A,W
0154:  MOVWF  32
0155:  CALL   083
0156:  INCF   29,F
0157:  GOTO   14B
.................... }											// Lenh: Thiet lap cau hinh hoat dong cho C.LCD. 
....................  
.................... // *************************************************** 
.................... byte lcd_read_byte(void)	// Ham xu ly doc thong tin (dang 8 bit) tu thong tin dang 4 bit tu C.LCD. 
.................... { 
.................... // Khai bao bien. 
.................... byte low,high; 
.................... // Dinh nghia ham. 
.................... output_float(LCD_DATA4);	// Thiet lap chan port o che do ngo vao. 
*
0086:  BSF    08.4
.................... output_float(LCD_DATA5); 
0087:  BSF    08.5
.................... output_float(LCD_DATA6); 
0088:  BSF    08.6
.................... output_float(LCD_DATA7); 
0089:  BSF    08.7
....................  
.................... lcd_output_rw(1);			// RW = 1 - Doc thong tin tu C.LCD. 
008A:  BCF    03.5
008B:  BSF    08.2
008C:  BSF    03.5
008D:  BCF    08.2
.................... 						// Tien hanh doc 4 bit cao cua thong tin tu C.LCD. 
.................... delay_cycles(1);			// Tao tre 1 chu ky (t=1us voi fosc=4MHz). 
008E:  NOP
.................... lcd_output_enable(1);		// EN = 1 - Cho phep truy xuat C.LCD. 
008F:  BCF    03.5
0090:  BSF    08.3
0091:  BSF    03.5
0092:  BCF    08.3
.................... delay_cycles(1);			// Tao tre 1 chu ky (t=1us voi fosc=4MHz). 
0093:  NOP
.................... high = lcd_read_nibble();	// Cat tam 4 bit du lieu (4 bit cao). 
0094:  BCF    03.5
0095:  CALL   052
0096:  MOVF   78,W
0097:  MOVWF  34
.................... lcd_output_enable(0);		// EN = 0 - Cam truy xuat C.LCD. 
0098:  BCF    08.3
0099:  BSF    03.5
009A:  BCF    08.3
.................... 						// Tien hanh doc 4 bit thap cua thong tin tu C.LCD. 
.................... delay_cycles(1);			// Tao tre 1 chu ky (t=1us voi fosc=4MHz). 
009B:  NOP
.................... lcd_output_enable(1);		// EN = 1 - Cho phep truy xuat C.LCD. 
009C:  BCF    03.5
009D:  BSF    08.3
009E:  BSF    03.5
009F:  BCF    08.3
.................... delay_cycles(1);			// Tao tre 1 chu ky (t=1us voi fosc=4MHz). 
00A0:  NOP
.................... low = lcd_read_nibble();	// Cat tam 4 bit du lieu (4 bit thap). 
00A1:  BCF    03.5
00A2:  CALL   052
00A3:  MOVF   78,W
00A4:  MOVWF  33
.................... lcd_output_enable(0);		// EN = 0 - Cam truy xuat C.LCD. 
00A5:  BCF    08.3
00A6:  BSF    03.5
00A7:  BCF    08.3
....................  
.................... output_drive(LCD_DATA4);	// Thiet lap chan port o che do ngo ra. 
00A8:  BCF    08.4
.................... output_drive(LCD_DATA5); 
00A9:  BCF    08.5
.................... output_drive(LCD_DATA6); 
00AA:  BCF    08.6
.................... output_drive(LCD_DATA7); 
00AB:  BCF    08.7
....................  
.................... return((high<<4) | low);	// Tra ve ket qua du lieu (dang 8 bit). 
00AC:  BCF    03.5
00AD:  SWAPF  34,W
00AE:  MOVWF  77
00AF:  MOVLW  F0
00B0:  ANDWF  77,F
00B1:  MOVF   77,W
00B2:  IORWF  33,W
00B3:  MOVWF  78
.................... } 
....................  
.................... // *************************************************** 
.................... byte lcd_read_nibble(void)	// Ham doc thong tin (dang 4 bit / nibble) tu C.LCD. 
*
0052:  CLRF   35
.................... { 
.................... // Khai bao bien. 
.................... byte n = 0x00;	// Mac dinh gia tri ban dau cho noi chua se thong tin. 
.................... // Dinh nghia ham. 
.................... n |= input(LCD_DATA4);			// Doc lan luot cac bit tu bus du lieu. 
0053:  BSF    03.5
0054:  BSF    08.4
0055:  MOVLW  00
0056:  BCF    03.5
0057:  BTFSC  08.4
0058:  MOVLW  01
0059:  IORWF  35,F
.................... n |= input(LCD_DATA5) << 1; 
005A:  BSF    03.5
005B:  BSF    08.5
005C:  MOVLW  00
005D:  BCF    03.5
005E:  BTFSC  08.5
005F:  MOVLW  01
0060:  MOVWF  77
0061:  BCF    03.0
0062:  RLF    77,F
0063:  MOVF   77,W
0064:  IORWF  35,F
.................... n |= input(LCD_DATA6) << 2; 
0065:  BSF    03.5
0066:  BSF    08.6
0067:  MOVLW  00
0068:  BCF    03.5
0069:  BTFSC  08.6
006A:  MOVLW  01
006B:  MOVWF  77
006C:  RLF    77,F
006D:  RLF    77,F
006E:  MOVLW  FC
006F:  ANDWF  77,F
0070:  MOVF   77,W
0071:  IORWF  35,F
.................... n |= input(LCD_DATA7) << 3; 
0072:  BSF    03.5
0073:  BSF    08.7
0074:  MOVLW  00
0075:  BCF    03.5
0076:  BTFSC  08.7
0077:  MOVLW  01
0078:  MOVWF  77
0079:  RLF    77,F
007A:  RLF    77,F
007B:  RLF    77,F
007C:  MOVLW  F8
007D:  ANDWF  77,F
007E:  MOVF   77,W
007F:  IORWF  35,F
....................  
.................... return(n);	// Tra ve ket qua doc duoc (data = 0000 xxxx). 
0080:  MOVF   35,W
0081:  MOVWF  78
0082:  RETURN
.................... } 
....................  
.................... // *************************************************** 
.................... void lcd_send_byte(byte address, byte n)	// Ham gui thong tin (byte) toi C.LCD tai dia chi (address). 
.................... {											// address = 0: Lenh / 1: Du lieu. 
.................... 											// byte = Thong tin can gui (8 bit). 
.................... // Khai bao bien. 
....................  
.................... // Dinh nghia ham.   
.................... lcd_output_rs(0);		// RS = 0 - Databus = Bus lenh. 
0083:  BCF    08.1
0084:  BSF    03.5
0085:  BCF    08.1
.................... while(bit_test(lcd_read_byte(),7));	// Cho Busy Flag = 0 (C.LCD da xu ly xong). 
*
00B4:  MOVF   78,W
00B5:  MOVWF  33
00B6:  BTFSS  33.7
00B7:  GOTO   0BA
00B8:  BSF    03.5
00B9:  GOTO   086
.................... lcd_output_rs(address);	// RS = address - Databus = Bus lenh/du lieu. 
00BA:  MOVF   31,F
00BB:  BTFSS  03.2
00BC:  GOTO   0BF
00BD:  BCF    08.1
00BE:  GOTO   0C0
00BF:  BSF    08.1
00C0:  BSF    03.5
00C1:  BCF    08.1
.................... delay_cycles(1);		// Tao tre 1 chu ky (t=1us voi fosc=4MHz). 
00C2:  NOP
.................... lcd_output_rw(0);		// RW = 0 - Ghi thong tin vao C.LCD. 
00C3:  BCF    03.5
00C4:  BCF    08.2
00C5:  BSF    03.5
00C6:  BCF    08.2
.................... delay_cycles(1);		// Tao tre 1 chu ky (t=1us voi fosc=4MHz). 
00C7:  NOP
.................... lcd_output_enable(0);	// EN = 0 - Cam truy xuat C.LCD. 
00C8:  BCF    03.5
00C9:  BCF    08.3
00CA:  BSF    03.5
00CB:  BCF    08.3
.................... lcd_send_nibble(n >> 4);	// Goi ham truyen 4 bit cao sang C.LCD. 
00CC:  BCF    03.5
00CD:  SWAPF  32,W
00CE:  MOVWF  33
00CF:  MOVLW  0F
00D0:  ANDWF  33,F
00D1:  MOVF   33,W
00D2:  MOVWF  34
00D3:  CALL   027
.................... lcd_send_nibble(n & 0x0F);	// Goi ham truyen 4 bit thap sang C.LCD. 
00D4:  MOVF   32,W
00D5:  ANDLW  0F
00D6:  MOVWF  33
00D7:  MOVWF  34
00D8:  CALL   027
00D9:  RETURN
.................... } 
....................  
.................... // *************************************************** 
.................... void lcd_send_nibble(byte n)	// Ham gui thong tin (dang 4 bit / nibble) sang C.LCD. 
.................... {								// n = Thong tin can gui. 4 bit can gui phai nam vi tri 4 bit thap. 
.................... // Khai bao bien. 
....................  
.................... // Dinh nghia ham.  
.................... output_bit(LCD_DATA4, bit_test(n, 0));	// Xuat lan luot cac bit len bus du lieu. 
*
0027:  BTFSC  34.0
0028:  GOTO   02B
0029:  BCF    08.4
002A:  GOTO   02C
002B:  BSF    08.4
002C:  BSF    03.5
002D:  BCF    08.4
.................... output_bit(LCD_DATA5, bit_test(n, 1)); 
002E:  BCF    03.5
002F:  BTFSC  34.1
0030:  GOTO   033
0031:  BCF    08.5
0032:  GOTO   034
0033:  BSF    08.5
0034:  BSF    03.5
0035:  BCF    08.5
.................... output_bit(LCD_DATA6, bit_test(n, 2)); 
0036:  BCF    03.5
0037:  BTFSC  34.2
0038:  GOTO   03B
0039:  BCF    08.6
003A:  GOTO   03C
003B:  BSF    08.6
003C:  BSF    03.5
003D:  BCF    08.6
.................... output_bit(LCD_DATA7, bit_test(n, 3)); 
003E:  BCF    03.5
003F:  BTFSC  34.3
0040:  GOTO   043
0041:  BCF    08.7
0042:  GOTO   044
0043:  BSF    08.7
0044:  BSF    03.5
0045:  BCF    08.7
....................      
.................... delay_cycles(1);		// Tao tre 1 chu ky (t=1us voi fosc=4MHz). 
0046:  NOP
.................... lcd_output_enable(1);	// Tao xung ghi thong tin vao C.LCD. 
0047:  BCF    03.5
0048:  BSF    08.3
0049:  BSF    03.5
004A:  BCF    08.3
.................... delay_us(2);			// Tao tre 2 chu ky (t=2us voi fosc=4MHz). 
004B:  GOTO   04C
.................... lcd_output_enable(0);	// Tao xung ghi thong tin vao LCD - EN = 1->0 (High to Low). 
004C:  BCF    03.5
004D:  BCF    08.3
004E:  BSF    03.5
004F:  BCF    08.3
0050:  BCF    03.5
0051:  RETURN
.................... } 
....................  
.................... // *************************************************** 
.................... void lcd_gotoxy(byte x, byte y)	// Ham thiet lap vi tri ghi tren C.LCD (Goc tren ben trai co toa do la 1,1). 
.................... { 
.................... // Khai bao bien. 
.................... byte address; 
.................... // Dinh nghia ham.   
.................... if(y==1)					// Kiem tra vi tri truy xuat thuoc hang 2. 
*
00DA:  DECFSZ 2E,W
00DB:  GOTO   0DE
.................... 	address=lcd_line_one;		// Nap dia chi RAM cua hang 2.  
00DC:  CLRF   2F
00DD:  GOTO   0F2
.................... else if(y==2)		// Neu vi tri truy xuat thuoc hang 1. 
00DE:  MOVF   2E,W
00DF:  SUBLW  02
00E0:  BTFSS  03.2
00E1:  GOTO   0E5
.................... 	address=lcd_line_two;		// Nap dia chi RAM cua hang 1. 
00E2:  MOVLW  40
00E3:  MOVWF  2F
00E4:  GOTO   0F2
.................... else if(y==3) 
00E5:  MOVF   2E,W
00E6:  SUBLW  03
00E7:  BTFSS  03.2
00E8:  GOTO   0EC
.................... 	address=lcd_line_three;	   
00E9:  MOVLW  14
00EA:  MOVWF  2F
00EB:  GOTO   0F2
.................... else if(y==4) 
00EC:  MOVF   2E,W
00ED:  SUBLW  04
00EE:  BTFSS  03.2
00EF:  GOTO   0F2
.................... 	address=lcd_line_four;	 
00F0:  MOVLW  54
00F1:  MOVWF  2F
....................  
.................... address+=x-1;					// Ghep dia chi cot vao dia chi tong quat (address). address = address + (x-1).		 
00F2:  MOVLW  01
00F3:  SUBWF  2D,W
00F4:  ADDWF  2F,F
.................... 								// Ta qui uoc: Goc tren ben trai co toa do la 1,1 -> Cot dau tien la Cot 1 
.................... 								// (x-1) vi C.LCD qui uoc cot dau tien co dia chi la 0. 
.................... lcd_send_byte(0,0x80|address);	// Goi ham truyen thong tin (lenh) sang C.LCD. 
00F5:  MOVF   2F,W
00F6:  IORLW  80
00F7:  MOVWF  30
00F8:  CLRF   31
00F9:  MOVF   30,W
00FA:  MOVWF  32
00FB:  CALL   083
00FC:  RETURN
.................... }								// Lenh: Thiet lap dia chi DDRAM cua C.LCD (addresss).	 
....................  
.................... // *************************************************** 
.................... char lcd_getc(byte x, byte y)	// Ham tra ve ky tu tai vi tri (x,y) tren C.LCD. 
.................... { 
.................... // Khai bao bien. 
.................... char value; 
.................... // Dinh nghia ham.   
.................... lcd_gotoxy(x,y);				// Xac dinh toa do C.LCD can truy xuat. 
.................... while(bit_test(lcd_read_byte(),7));	// Cho Busy Flag = 0 (C.LCD da xu ly xong). 
.................... lcd_output_rs(1);			// RS = 1 - Databus = Bus du lieu. 
.................... value = lcd_read_byte();	// Doc ve tu C.LCD. 
.................... lcd_output_rs(0);			// RS = 0 - Databus = Bus lenh. 
....................  
.................... return(value);		// Tra ve ma ky tu tai toa do yeu cau. 
.................... } 
....................  
.................... // *************************************************** 
.................... void lcd_putc(char c)	// Ham se hien thi ky tu c tai vi tri ke tiep tren C.LCD. 
.................... { 
.................... // Khai bao bien. 
....................  
.................... // Dinh nghia ham.  
.................... switch (c) 
00FD:  MOVF   2C,W
00FE:  XORLW  0C
00FF:  BTFSC  03.2
0100:  GOTO   108
0101:  XORLW  06
0102:  BTFSC  03.2
0103:  GOTO   110
0104:  XORLW  02
0105:  BTFSC  03.2
0106:  GOTO   116
0107:  GOTO   11B
.................... 	{ 
.................... 	case '\f':  	// Chuc nang xoa hien thi. 
.................... 		lcd_send_byte(0,0x01);	// Goi ham truyen thong tin (lenh) sang C.LCD. 
0108:  CLRF   31
0109:  MOVLW  01
010A:  MOVWF  32
010B:  CALL   083
.................... 		delay_ms(2);			// Lenh: Xoa hien thi tren man hinh C.LCD (0x01). 
010C:  MOVLW  02
010D:  MOVWF  2D
010E:  CALL   012
.................... 		break; 
010F:  GOTO   120
.................... 	case '\n': 		// Chuc nang bat dau hang thu 2. 
.................... 		lcd_gotoxy(1,0x02);     // Goi ham truyen thong tin (du lieu) sang C.LCD.    
0110:  MOVLW  01
0111:  MOVWF  2D
0112:  MOVLW  02
0113:  MOVWF  2E
0114:  CALL   0DA
.................... 		break; 
0115:  GOTO   120
....................     case '\b': 		// Chuc nang lui ve 1 vi tri. 
.................... 		lcd_send_byte(0,0x10); 	// Goi ham truyen thong tin (lenh) sang C.LCD.  
0116:  CLRF   31
0117:  MOVLW  10
0118:  MOVWF  32
0119:  CALL   083
.................... 		break;					// Lenh: Doi con tro sang trai (0x10). 
011A:  GOTO   120
.................... 	default: 		// Chuc nang hien thi ky tu c tai vi tri ke tiep tren C.LCD. 
.................... 		lcd_send_byte(1,c);     // Goi ham truyen thong tin (du lieu) sang C.LCD. 
011B:  MOVLW  01
011C:  MOVWF  31
011D:  MOVF   2C,W
011E:  MOVWF  32
011F:  CALL   083
.................... 		break; 
....................    } 
0120:  RETURN
.................... }		 
.................... // ***************************************************	 
....................  
....................  
.................... #define MFRC522_CS  PIN_E2                  
.................... #define MFRC522_SCK PIN_C3 
.................... #define MFRC522_SI  PIN_C4                            
.................... #define MFRC522_SO  PIN_C5               
.................... #define MFRC522_RST PIN_E0    
.................... #include <Built_in.h>  
.................... //#use spi(FORCE_HW,master,baud = 10000000, BITS=8,MSB_FIRST, stream = RFID, ENABLE_ACTIVE=0)// uses hardware SPI and gives this stream the name SPI_STREAM 
.................... //MF522 Command word 
.................... #define PCD_IDLE              0x00               //NO action; Cancel the current command 
.................... #define PCD_AUTHENT           0x0E               //Authentication Key 
.................... #define PCD_RECEIVE           0x08               //Receive Data 
.................... #define PCD_TRANSMIT          0x04               //Transmit data 
.................... #define PCD_TRANSCEIVE        0x0C               //Transmit and receive data, 
.................... #define PCD_RESETPHASE        0x0F               //Reset 
.................... #define PCD_CALCCRC           0x03               //CRC Calculate 
.................... // Mifare_One card command word                  
.................... #define PICC_REQIDL          0x26               // find the antenna area does not enter hibernation 
.................... #define PICC_REQALL          0x52               // find all the cards antenna area 
.................... #define PICC_ANTICOLL        0x93               // anti-collision 
.................... #define PICC_SElECTTAG       0x93               // election card 
.................... #define PICC_AUTHENT1A       0x60               // authentication key A 
.................... #define PICC_AUTHENT1B       0x61               // authentication key B 
.................... #define PICC_READ            0x30               // Read Block 
.................... #define PICC_WRITE           0xA0               // write block 
.................... #define PICC_DECREMENT       0xC0               // debit 
.................... #define PICC_INCREMENT       0xC1               // recharge 
.................... #define PICC_RESTORE         0xC2               // transfer block data to the buffer 
.................... #define PICC_TRANSFER        0xB0               // save the data in the buffer 
.................... #define PICC_HALT            0x50               // Sleep 
.................... //And MF522 The error code is returned when communication 
.................... #define MI_OK                 0 
.................... #define MI_NOTAGERR           1 
.................... #define MI_ERR                2 
.................... //------------------MFRC522 Register--------------- 
.................... //Page 0:Command and Status 
.................... #define     RESERVED00            0x00     
.................... #define     COMMANDREG            0x01     
.................... #define     COMMIENREG            0x02     
.................... #define     DIVLENREG             0x03     
.................... #define     COMMIRQREG            0x04     
.................... #define     DIVIRQREG             0x05 
.................... #define     ERRORREG              0x06     
.................... #define     STATUS1REG            0x07     
.................... #define     STATUS2REG            0x08     
.................... #define     FIFODATAREG           0x09 
.................... #define     FIFOLEVELREG          0x0A 
.................... #define     WATERLEVELREG         0x0B 
.................... #define     CONTROLREG            0x0C 
.................... #define     BITFRAMINGREG         0x0D 
.................... #define     COLLREG               0x0E 
.................... #define     RESERVED01            0x0F 
.................... //PAGE 1:Command      
.................... #define     RESERVED10            0x10 
.................... #define     MODEREG               0x11 
.................... #define     TXMODEREG             0x12 
.................... #define     RXMODEREG             0x13 
.................... #define     TXCONTROLREG          0x14 
.................... #define     TXAUTOREG             0x15 
.................... #define     TXSELREG              0x16 
.................... #define     RXSELREG              0x17 
.................... #define     RXTHRESHOLDREG        0x18 
.................... #define     DEMODREG              0x19 
.................... #define     RESERVED11            0x1A 
.................... #define     RESERVED12            0x1B 
.................... #define     MIFAREREG             0x1C 
.................... #define     RESERVED13            0x1D 
.................... #define     RESERVED14            0x1E 
.................... #define     SERIALSPEEDREG        0x1F 
.................... //PAGE 2:CFG     
.................... #define     RESERVED20            0x20   
.................... #define     CRCRESULTREGM         0x21 
.................... #define     CRCRESULTREGL         0x22 
.................... #define     RESERVED21            0x23 
.................... #define     MODWIDTHREG           0x24 
.................... #define     RESERVED22            0x25 
.................... #define     RFCFGREG              0x26 
.................... #define     GSNREG                0x27 
.................... #define     CWGSPREG              0x28 
.................... #define     MODGSPREG             0x29 
.................... #define     TMODEREG              0x2A 
.................... #define     TPRESCALERREG         0x2B 
.................... #define     TRELOADREGH           0x2C 
.................... #define     TRELOADREGL           0x2D 
.................... #define     TCOUNTERVALUEREGH     0x2E 
.................... #define     TCOUNTERVALUEREGL     0x2F 
.................... //PAGE 3:TEST REGISTER      
.................... #define     RESERVED30            0x30 
.................... #define     TESTSEL1REG           0x31 
.................... #define     TESTSEL2REG           0x32 
.................... #define     TESTPINENREG          0x33 
.................... #define     TESTPINVALUEREG       0x34 
.................... #define     TESTBUSREG            0x35 
.................... #define     AUTOTESTREG           0x36 
.................... #define     VERSIONREG            0x37 
.................... #define     ANALOGTESTREG         0x38 
.................... #define     TESTDAC1REG           0x39   
.................... #define     TESTDAC2REG           0x3A    
.................... #define     TESTADCREG            0x3B    
.................... #define     RESERVED31            0x3C    
.................... #define     RESERVED32            0x3D    
.................... #define     RESERVED33            0x3E    
.................... #define     RESERVED34            0x3F 
.................... static void MFRC522_Wr_Old( char addr, char value ) 
.................... { 
....................         output_bit(MFRC522_CS,0);               
....................         spi_write( ( addr << 1 ) & 0x7E ); 
....................         spi_write( value ); 
....................         output_bit(MFRC522_CS,1); 
.................... } 
.................... static char MFRC522_Rd_Old( char addr ) 
.................... { 
.................... char value; 
....................         output_bit(MFRC522_CS,0);                 
....................         spi_write( (( addr << 1 ) & 0x7E)|0x80 ); 
....................         value = spi_read( 0x00 );                             
....................         output_bit(MFRC522_CS,1);      
....................         return value; 
.................... }  
....................  
.................... unsigned int8 MFRC522_Rd(unsigned int8 Address)   
*
01BB:  CLRF   46
.................... { 
....................    unsigned int i, ucAddr; 
....................    unsigned int ucResult = 0; 
....................    output_bit (MFRC522_SCK, 0); 
01BC:  BCF    07.3
01BD:  BCF    20.3
01BE:  MOVF   20,W
01BF:  BSF    03.5
01C0:  MOVWF  07
....................    output_bit (MFRC522_CS, 0); 
01C1:  BCF    03.5
01C2:  BCF    09.2
01C3:  BSF    03.5
01C4:  BCF    09.2
....................    ucAddr = ( (Address<<1)&0x7E)|0x80; 
01C5:  BCF    03.0
01C6:  BCF    03.5
01C7:  RLF    43,W
01C8:  ANDLW  7E
01C9:  IORLW  80
01CA:  MOVWF  45
....................    //Write spi 
....................    FOR (i = 8; i > 0; i--) 
01CB:  MOVLW  08
01CC:  MOVWF  44
01CD:  MOVF   44,F
01CE:  BTFSC  03.2
01CF:  GOTO   1ED
....................    { 
....................       output_bit (MFRC522_SI, ((ucAddr&0x80) == 0x80)); 
01D0:  MOVF   45,W
01D1:  ANDLW  80
01D2:  SUBLW  80
01D3:  BTFSC  03.2
01D4:  GOTO   1D7
01D5:  BCF    07.4
01D6:  GOTO   1D8
01D7:  BSF    07.4
01D8:  BCF    20.4
01D9:  MOVF   20,W
01DA:  BSF    03.5
01DB:  MOVWF  07
....................       output_bit (MFRC522_SCK, 1); 
01DC:  BCF    03.5
01DD:  BSF    07.3
01DE:  BCF    20.3
01DF:  MOVF   20,W
01E0:  BSF    03.5
01E1:  MOVWF  07
....................       ucAddr <<= 1; 
01E2:  BCF    03.0
01E3:  BCF    03.5
01E4:  RLF    45,F
....................       output_bit (MFRC522_SCK, 0); 
01E5:  BCF    07.3
01E6:  BCF    20.3
01E7:  MOVF   20,W
01E8:  BSF    03.5
01E9:  MOVWF  07
01EA:  BCF    03.5
01EB:  DECF   44,F
01EC:  GOTO   1CD
....................    } 
.................... //SPI read 
....................    FOR (i = 8; i > 0; i--) 
01ED:  MOVLW  08
01EE:  MOVWF  44
01EF:  MOVF   44,F
01F0:  BTFSC  03.2
01F1:  GOTO   20B
....................    { 
....................       output_bit (MFRC522_SCK, 1); 
01F2:  BSF    07.3
01F3:  BCF    20.3
01F4:  MOVF   20,W
01F5:  BSF    03.5
01F6:  MOVWF  07
....................       ucResult <<= 1; 
01F7:  BCF    03.0
01F8:  BCF    03.5
01F9:  RLF    46,F
....................       ucResult|= (INT1) input (MFRC522_SO); 
01FA:  BSF    20.5
01FB:  MOVF   20,W
01FC:  BSF    03.5
01FD:  MOVWF  07
01FE:  MOVLW  00
01FF:  BCF    03.5
0200:  BTFSC  07.5
0201:  MOVLW  01
0202:  IORWF  46,F
....................       output_bit (MFRC522_SCK, 0); 
0203:  BCF    07.3
0204:  BCF    20.3
0205:  MOVF   20,W
0206:  BSF    03.5
0207:  MOVWF  07
0208:  BCF    03.5
0209:  DECF   44,F
020A:  GOTO   1EF
....................    } 
....................  
....................     
....................    output_bit (MFRC522_CS, 1); 
020B:  BSF    09.2
020C:  BSF    03.5
020D:  BCF    09.2
....................    output_bit (MFRC522_SCK, 1); 
020E:  BCF    03.5
020F:  BSF    07.3
0210:  BCF    20.3
0211:  MOVF   20,W
0212:  BSF    03.5
0213:  MOVWF  07
....................    RETURN ucResult; 
0214:  BCF    03.5
0215:  MOVF   46,W
0216:  MOVWF  78
0217:  RETURN
.................... } 
....................  
.................... void MFRC522_Wr(unsigned int8 Address, unsigned int8 value) 
.................... { 
....................     
....................    unsigned int8 i, ucAddr; 
....................    output_bit (MFRC522_SCK, 0); 
*
015E:  BCF    07.3
015F:  BCF    20.3
0160:  MOVF   20,W
0161:  BSF    03.5
0162:  MOVWF  07
....................    output_bit (MFRC522_CS, 0); 
0163:  BCF    03.5
0164:  BCF    09.2
0165:  BSF    03.5
0166:  BCF    09.2
....................    ucAddr = ( (Address<<1)&0x7E); 
0167:  BCF    03.0
0168:  BCF    03.5
0169:  RLF    44,W
016A:  ANDLW  7E
016B:  MOVWF  47
....................    FOR (i = 8; i > 0; i--) 
016C:  MOVLW  08
016D:  MOVWF  46
016E:  MOVF   46,F
016F:  BTFSC  03.2
0170:  GOTO   18E
....................    { 
....................       output_bit (MFRC522_SI, ( (ucAddr&0x80) == 0x80)); 
0171:  MOVF   47,W
0172:  ANDLW  80
0173:  SUBLW  80
0174:  BTFSC  03.2
0175:  GOTO   178
0176:  BCF    07.4
0177:  GOTO   179
0178:  BSF    07.4
0179:  BCF    20.4
017A:  MOVF   20,W
017B:  BSF    03.5
017C:  MOVWF  07
....................       output_bit (MFRC522_SCK, 1); 
017D:  BCF    03.5
017E:  BSF    07.3
017F:  BCF    20.3
0180:  MOVF   20,W
0181:  BSF    03.5
0182:  MOVWF  07
....................       ucAddr <<= 1; 
0183:  BCF    03.0
0184:  BCF    03.5
0185:  RLF    47,F
....................       output_bit (MFRC522_SCK, 0); 
0186:  BCF    07.3
0187:  BCF    20.3
0188:  MOVF   20,W
0189:  BSF    03.5
018A:  MOVWF  07
018B:  BCF    03.5
018C:  DECF   46,F
018D:  GOTO   16E
....................    } 
....................  
....................     
....................    FOR (i = 8; i > 0; i--) 
018E:  MOVLW  08
018F:  MOVWF  46
0190:  MOVF   46,F
0191:  BTFSC  03.2
0192:  GOTO   1B0
....................    { 
....................       output_bit (MFRC522_SI, ( (value&0x80) == 0x80)); 
0193:  MOVF   45,W
0194:  ANDLW  80
0195:  SUBLW  80
0196:  BTFSC  03.2
0197:  GOTO   19A
0198:  BCF    07.4
0199:  GOTO   19B
019A:  BSF    07.4
019B:  BCF    20.4
019C:  MOVF   20,W
019D:  BSF    03.5
019E:  MOVWF  07
....................       output_bit (MFRC522_SCK, 1); 
019F:  BCF    03.5
01A0:  BSF    07.3
01A1:  BCF    20.3
01A2:  MOVF   20,W
01A3:  BSF    03.5
01A4:  MOVWF  07
....................       value <<= 1; 
01A5:  BCF    03.0
01A6:  BCF    03.5
01A7:  RLF    45,F
....................       output_bit (MFRC522_SCK, 0); 
01A8:  BCF    07.3
01A9:  BCF    20.3
01AA:  MOVF   20,W
01AB:  BSF    03.5
01AC:  MOVWF  07
01AD:  BCF    03.5
01AE:  DECF   46,F
01AF:  GOTO   190
....................    } 
....................  
....................    output_bit (MFRC522_CS, 1); 
01B0:  BSF    09.2
01B1:  BSF    03.5
01B2:  BCF    09.2
....................    output_bit (MFRC522_SCK, 1); 
01B3:  BCF    03.5
01B4:  BSF    07.3
01B5:  BCF    20.3
01B6:  MOVF   20,W
01B7:  BSF    03.5
01B8:  MOVWF  07
01B9:  BCF    03.5
01BA:  RETURN
.................... } 
.................... static void MFRC522_Clear_Bit( char addr, char mask ) 
*
0218:  CLRF   42
.................... {     unsigned int8  tmp =0x0;  
....................       tmp=MFRC522_Rd( addr ) ; 
0219:  MOVF   40,W
021A:  MOVWF  43
021B:  CALL   1BB
021C:  MOVF   78,W
021D:  MOVWF  42
....................      MFRC522_Wr( addr,  tmp&~mask );     // tmp&(~mask) 
021E:  MOVF   41,W
021F:  XORLW  FF
0220:  ANDWF  42,W
0221:  MOVWF  43
0222:  MOVF   40,W
0223:  MOVWF  44
0224:  MOVF   43,W
0225:  MOVWF  45
0226:  CALL   15E
0227:  RETURN
.................... } 
.................... static void MFRC522_Set_Bit( char addr, char mask ) 
0228:  CLRF   42
.................... {    unsigned int8  tmp =0x0;  
....................       tmp=MFRC522_Rd( addr ) ;   
0229:  MOVF   40,W
022A:  MOVWF  43
022B:  CALL   1BB
022C:  MOVF   78,W
022D:  MOVWF  42
....................      MFRC522_Wr( addr, tmp|mask ); 
022E:  MOVF   42,W
022F:  IORWF  41,W
0230:  MOVWF  43
0231:  MOVF   40,W
0232:  MOVWF  44
0233:  MOVF   43,W
0234:  MOVWF  45
0235:  CALL   15E
0236:  RETURN
.................... } 
.................... void MFRC522_Reset() 
.................... {   
....................    output_bit (MFRC522_RST, 1) ; 
*
023E:  BCF    03.5
023F:  BSF    09.0
0240:  BSF    03.5
0241:  BCF    09.0
....................    delay_us (1); 
0242:  NOP
....................    output_bit (MFRC522_RST, 0) ; 
0243:  BCF    03.5
0244:  BCF    09.0
0245:  BSF    03.5
0246:  BCF    09.0
....................    delay_us (1); 
0247:  NOP
....................    output_bit (MFRC522_RST, 1) ; 
0248:  BCF    03.5
0249:  BSF    09.0
024A:  BSF    03.5
024B:  BCF    09.0
....................    delay_us (1); 
024C:  NOP
....................    MFRC522_Wr( COMMANDREG, PCD_RESETPHASE );  
024D:  MOVLW  01
024E:  BCF    03.5
024F:  MOVWF  44
0250:  MOVLW  0F
0251:  MOVWF  45
0252:  CALL   15E
....................    delay_us (1); 
0253:  NOP
.................... } 
.................... void MFRC522_AntennaOn() 
.................... {                                                
.................... unsigned int8 stt; 
.................... stt= MFRC522_Rd( TXCONTROLREG ) ; 
*
0276:  MOVLW  14
0277:  MOVWF  43
0278:  CALL   1BB
0279:  MOVF   78,W
027A:  MOVWF  29
.................... MFRC522_Set_Bit( TXCONTROLREG, 0x03 );  
027B:  MOVLW  14
027C:  MOVWF  40
027D:  MOVLW  03
027E:  MOVWF  41
027F:  CALL   228
.................... //!if(! (stt&0x03)){                                      
.................... //! MFRC522_Set_Bit( TXCONTROLREG, 0x03 );  
.................... //!} 
.................... } 
.................... void MFRC522_AntennaOff() 
.................... { 
....................  MFRC522_Clear_Bit( TXCONTROLREG, 0x03 );                                            
*
0271:  MOVLW  14
0272:  MOVWF  40
0273:  MOVLW  03
0274:  MOVWF  41
0275:  CALL   218
.................... } 
.................... void MFRC522_Init()       
.................... { 
....................                                                                
....................     output_bit(MFRC522_CS , 1);   
*
0237:  BSF    09.2
0238:  BSF    03.5
0239:  BCF    09.2
....................     output_bit( MFRC522_RST , 1);  
023A:  BCF    03.5
023B:  BSF    09.0
023C:  BSF    03.5
023D:  BCF    09.0
....................      
....................      MFRC522_Reset();         
....................      MFRC522_Wr( TMODEREG, 0x8D );      //Tauto=1; f(Timer) = 6.78MHz/TPreScaler 
*
0254:  MOVLW  2A
0255:  MOVWF  44
0256:  MOVLW  8D
0257:  MOVWF  45
0258:  CALL   15E
....................      MFRC522_Wr( TPRESCALERREG, 0x3E ); //TModeReg[3..0] + TPrescalerReg  
0259:  MOVLW  2B
025A:  MOVWF  44
025B:  MOVLW  3E
025C:  MOVWF  45
025D:  CALL   15E
....................      MFRC522_Wr( TRELOADREGL, 30 );  
025E:  MOVLW  2D
025F:  MOVWF  44
0260:  MOVLW  1E
0261:  MOVWF  45
0262:  CALL   15E
....................      MFRC522_Wr( TRELOADREGH, 0 );   
0263:  MOVLW  2C
0264:  MOVWF  44
0265:  CLRF   45
0266:  CALL   15E
....................      MFRC522_Wr( TXAUTOREG, 0x40 );    //100%ASK 
0267:  MOVLW  15
0268:  MOVWF  44
0269:  MOVLW  40
026A:  MOVWF  45
026B:  CALL   15E
....................      MFRC522_Wr( MODEREG, 0x3D );      // CRC valor inicial de 0x6363 
026C:  MOVLW  11
026D:  MOVWF  44
026E:  MOVLW  3D
026F:  MOVWF  45
0270:  CALL   15E
....................          
....................      //MFRC522_Clear_Bit( STATUS2REG, 0x08 );//MFCrypto1On=0 
....................      //MFRC522_Wr( RXSELREG, 0x86 );      //RxWait = RxSelReg[5..0] 
....................      //MFRC522_Wr( RFCFGREG, 0x7F );     //RxGain = 48dB 
....................      MFRC522_AntennaOff() ;              
....................      MFRC522_AntennaOn(); 
*
0280:  BCF    0A.3
0281:  BCF    0A.4
0282:  GOTO   50E (RETURN)
.................... } 
.................... char MFRC522_ToCard( char command, char *sendData, char sendLen, char *backData, unsigned *backLen ) 
*
02DB:  MOVLW  02
02DC:  MOVWF  3A
02DD:  CLRF   3B
02DE:  CLRF   3C
.................... { 
....................   char _status = MI_ERR; 
....................   char irqEn = 0x00; 
....................   char waitIRq = 0x00;                 
....................   char lastBits; 
....................   char n; 
....................   unsigned i; 
....................    
....................   switch (command) 
02DF:  MOVF   32,W
02E0:  XORLW  0E
02E1:  BTFSC  03.2
02E2:  GOTO   2E7
02E3:  XORLW  02
02E4:  BTFSC  03.2
02E5:  GOTO   2EC
02E6:  GOTO   2F1
....................   { 
....................     case PCD_AUTHENT:       //Certification cards close 
....................     { 
....................       irqEn = 0x12; 
02E7:  MOVLW  12
02E8:  MOVWF  3B
....................       waitIRq = 0x10; 
02E9:  MOVLW  10
02EA:  MOVWF  3C
....................       break; 
02EB:  GOTO   2F1
....................     } 
....................     case PCD_TRANSCEIVE:    //Transmit FIFO data 
....................     { 
....................       irqEn = 0x77; 
02EC:  MOVLW  77
02ED:  MOVWF  3B
....................       waitIRq = 0x30; 
02EE:  MOVLW  30
02EF:  MOVWF  3C
....................       break; 
02F0:  GOTO   2F1
....................     } 
....................     default: 
....................       break; 
....................   } 
....................   MFRC522_Wr( COMMIENREG, irqEn | 0x80 );  //Interrupt request 
02F1:  MOVF   3B,W
02F2:  IORLW  80
02F3:  MOVWF  40
02F4:  MOVLW  02
02F5:  MOVWF  44
02F6:  MOVF   40,W
02F7:  MOVWF  45
02F8:  CALL   15E
....................   MFRC522_Clear_Bit( COMMIRQREG, 0x80 );   //Clear all interrupt request bit 
02F9:  MOVLW  04
02FA:  MOVWF  40
02FB:  MOVLW  80
02FC:  MOVWF  41
02FD:  CALL   218
....................   MFRC522_Set_Bit( FIFOLEVELREG, 0x80 );   //FlushBuffer=1, FIFO Initialization 
02FE:  MOVLW  0A
02FF:  MOVWF  40
0300:  MOVLW  80
0301:  MOVWF  41
0302:  CALL   228
....................   MFRC522_Wr( COMMANDREG, PCD_IDLE );      //NO action; Cancel the current command??? 
0303:  MOVLW  01
0304:  MOVWF  44
0305:  CLRF   45
0306:  CALL   15E
....................    
....................    
....................    
....................   //Writing data to the FIFO 
....................   for ( i=0; i < sendLen; i++ ) 
0307:  CLRF   3F
0308:  MOVF   35,W
0309:  SUBWF  3F,W
030A:  BTFSC  03.0
030B:  GOTO   31B
....................   { 
....................     MFRC522_Wr( FIFODATAREG, sendData[i] ); 
030C:  MOVF   3F,W
030D:  ADDWF  33,W
030E:  MOVWF  04
030F:  BCF    03.7
0310:  BTFSC  34.0
0311:  BSF    03.7
0312:  MOVF   00,W
0313:  MOVWF  40
0314:  MOVLW  09
0315:  MOVWF  44
0316:  MOVF   40,W
0317:  MOVWF  45
0318:  CALL   15E
0319:  INCF   3F,F
031A:  GOTO   308
....................   } 
....................   //Execute the command 
....................   MFRC522_Wr( COMMANDREG, command ); 
031B:  MOVLW  01
031C:  MOVWF  44
031D:  MOVF   32,W
031E:  MOVWF  45
031F:  CALL   15E
....................   if (command == PCD_TRANSCEIVE ) 
0320:  MOVF   32,W
0321:  SUBLW  0C
0322:  BTFSS  03.2
0323:  GOTO   329
....................   { 
....................     MFRC522_Set_Bit( BITFRAMINGREG, 0x80 ); //StartSend=1,transmission of data starts   
0324:  MOVLW  0D
0325:  MOVWF  40
0326:  MOVLW  80
0327:  MOVWF  41
0328:  CALL   228
....................   } 
....................   //Waiting to receive data to complete 
....................   //i according to the clock frequency adjustment, the operator M1 card maximum waiting time 25ms??? 
....................   i = 0xFFFF;    
0329:  MOVLW  FF
032A:  MOVWF  3F
....................   do 
....................   { 
....................     //CommIrqReg[7..0] 
....................     //Set1 TxIRq RxIRq IdleIRq HiAlerIRq LoAlertIRq ErrIRq TimerIRq 
....................     n = MFRC522_Rd( COMMIRQREG ); 
032B:  MOVLW  04
032C:  MOVWF  43
032D:  CALL   1BB
032E:  MOVF   78,W
032F:  MOVWF  3E
....................     i--; 
0330:  DECF   3F,F
....................   } 
....................   while ( i && !(n & 0x01) && !( n & waitIRq ) ); 
0331:  MOVF   3F,F
0332:  BTFSC  03.2
0333:  GOTO   33A
0334:  BTFSC  3E.0
0335:  GOTO   33A
0336:  MOVF   3E,W
0337:  ANDWF  3C,W
0338:  BTFSC  03.2
0339:  GOTO   32B
....................   MFRC522_Clear_Bit( BITFRAMINGREG, 0x80 );    //StartSend=0 
033A:  MOVLW  0D
033B:  MOVWF  40
033C:  MOVLW  80
033D:  MOVWF  41
033E:  CALL   218
....................   if (i != 0) 
033F:  MOVF   3F,F
0340:  BTFSC  03.2
0341:  GOTO   3B2
....................   { 
....................     if( !( MFRC522_Rd( ERRORREG ) & 0x1B ) ) //BufferOvfl Collerr CRCErr ProtecolErr 
0342:  MOVLW  06
0343:  MOVWF  43
0344:  CALL   1BB
0345:  MOVF   78,W
0346:  ANDLW  1B
0347:  BTFSS  03.2
0348:  GOTO   3B0
....................     { 
....................       _status = MI_OK; 
0349:  CLRF   3A
....................       if ( n & irqEn & 0x01 ) 
034A:  MOVF   3E,W
034B:  ANDWF  3B,W
034C:  ANDLW  01
034D:  BTFSC  03.2
034E:  GOTO   351
....................       { 
....................         _status = MI_NOTAGERR;       //?? 
034F:  MOVLW  01
0350:  MOVWF  3A
....................       } 
....................       if ( command == PCD_TRANSCEIVE ) 
0351:  MOVF   32,W
0352:  SUBLW  0C
0353:  BTFSS  03.2
0354:  GOTO   3AF
....................       { 
....................         n = MFRC522_Rd( FIFOLEVELREG ); 
0355:  MOVLW  0A
0356:  MOVWF  43
0357:  CALL   1BB
0358:  MOVF   78,W
0359:  MOVWF  3E
....................         lastBits = MFRC522_Rd( CONTROLREG ) & 0x07; 
035A:  MOVLW  0C
035B:  MOVWF  43
035C:  CALL   1BB
035D:  MOVF   78,W
035E:  ANDLW  07
035F:  MOVWF  3D
....................         if (lastBits) 
0360:  MOVF   3D,F
0361:  BTFSC  03.2
0362:  GOTO   374
....................         { 
....................           *backLen = (n-1) * 8 + lastBits; 
0363:  MOVF   38,W
0364:  MOVWF  04
0365:  BCF    03.7
0366:  BTFSC  39.0
0367:  BSF    03.7
0368:  MOVLW  01
0369:  SUBWF  3E,W
036A:  MOVWF  77
036B:  RLF    77,F
036C:  RLF    77,F
036D:  RLF    77,F
036E:  MOVLW  F8
036F:  ANDWF  77,F
0370:  MOVF   77,W
0371:  ADDWF  3D,W
0372:  MOVWF  00
....................         } 
0373:  GOTO   381
....................         else 
....................         { 
....................           *backLen = n * 8; 
0374:  MOVF   38,W
0375:  MOVWF  04
0376:  BCF    03.7
0377:  BTFSC  39.0
0378:  BSF    03.7
0379:  RLF    3E,W
037A:  MOVWF  77
037B:  RLF    77,F
037C:  RLF    77,F
037D:  MOVLW  F8
037E:  ANDWF  77,F
037F:  MOVF   77,W
0380:  MOVWF  00
....................         } 
....................         if (n == 0) 
0381:  MOVF   3E,F
0382:  BTFSS  03.2
0383:  GOTO   386
....................         { 
....................           n = 1; 
0384:  MOVLW  01
0385:  MOVWF  3E
....................         } 
....................         if (n > 16) 
0386:  MOVF   3E,W
0387:  SUBLW  10
0388:  BTFSC  03.0
0389:  GOTO   38C
....................         { 
....................           n = 16; 
038A:  MOVLW  10
038B:  MOVWF  3E
....................         } 
....................         //Reading the received data in FIFO 
....................         for (i=0; i < n; i++) 
038C:  CLRF   3F
038D:  MOVF   3E,W
038E:  SUBWF  3F,W
038F:  BTFSC  03.0
0390:  GOTO   3A8
....................         { 
....................           backData[i] = MFRC522_Rd( FIFODATAREG ); 
0391:  MOVF   3F,W
0392:  ADDWF  36,W
0393:  MOVWF  78
0394:  MOVF   37,W
0395:  MOVWF  7A
0396:  BTFSC  03.0
0397:  INCF   7A,F
0398:  MOVF   78,W
0399:  MOVWF  40
039A:  MOVF   7A,W
039B:  MOVWF  41
039C:  MOVLW  09
039D:  MOVWF  43
039E:  CALL   1BB
039F:  MOVF   40,W
03A0:  MOVWF  04
03A1:  BCF    03.7
03A2:  BTFSC  41.0
03A3:  BSF    03.7
03A4:  MOVF   78,W
03A5:  MOVWF  00
03A6:  INCF   3F,F
03A7:  GOTO   38D
....................         } 
....................    
....................   backData[i] = 0; 
03A8:  MOVF   3F,W
03A9:  ADDWF  36,W
03AA:  MOVWF  04
03AB:  BCF    03.7
03AC:  BTFSC  37.0
03AD:  BSF    03.7
03AE:  CLRF   00
....................       } 
....................     } 
03AF:  GOTO   3B2
....................     else 
....................     { 
....................       _status = MI_ERR; 
03B0:  MOVLW  02
03B1:  MOVWF  3A
....................     } 
....................   } 
....................   //MFRC522_Set_Bit( CONTROLREG, 0x80 ); 
....................   //MFRC522_Wr( COMMANDREG, PCD_IDLE ); 
....................   return _status; 
03B2:  MOVF   3A,W
03B3:  MOVWF  78
03B4:  RETURN
.................... } 
.................... char MFRC522_Request( char reqMode, char *TagType ) 
.................... { 
....................   char _status; 
....................   unsigned backBits;            //The received data bits 
....................   MFRC522_Wr( BITFRAMINGREG, 0x07 ); //TxLastBists = BitFramingReg[2..0]   ??? 
*
03BB:  MOVLW  0D
03BC:  MOVWF  44
03BD:  MOVLW  07
03BE:  MOVWF  45
03BF:  CALL   15E
....................   TagType[0] = reqMode; 
03C0:  MOVF   2C,W
03C1:  MOVWF  04
03C2:  BCF    03.7
03C3:  BTFSC  2D.0
03C4:  BSF    03.7
03C5:  MOVF   2B,W
03C6:  MOVWF  00
....................   _status = MFRC522_ToCard( PCD_TRANSCEIVE, TagType, 1, TagType, &backBits ); 
03C7:  MOVLW  0C
03C8:  MOVWF  32
03C9:  MOVF   2D,W
03CA:  MOVWF  34
03CB:  MOVF   2C,W
03CC:  MOVWF  33
03CD:  MOVLW  01
03CE:  MOVWF  35
03CF:  MOVF   2D,W
03D0:  MOVWF  37
03D1:  MOVF   2C,W
03D2:  MOVWF  36
03D3:  CLRF   39
03D4:  MOVLW  2F
03D5:  MOVWF  38
03D6:  CALL   2DB
03D7:  MOVF   78,W
03D8:  MOVWF  2E
....................   if ( (_status != MI_OK) || (backBits != 0x10) ) 
03D9:  MOVF   2E,F
03DA:  BTFSS  03.2
03DB:  GOTO   3E0
03DC:  MOVF   2F,W
03DD:  SUBLW  10
03DE:  BTFSC  03.2
03DF:  GOTO   3E2
....................   { 
....................     _status = MI_ERR; 
03E0:  MOVLW  02
03E1:  MOVWF  2E
....................   } 
....................   return _status; 
03E2:  MOVF   2E,W
03E3:  MOVWF  78
.................... } 
.................... void MFRC522_CRC( char *dataIn, char length, char *dataOut ) 
.................... { 
.................... char i, n; 
....................     MFRC522_Clear_Bit( DIVIRQREG, 0x04 ); 
*
0481:  MOVLW  05
0482:  MOVWF  40
0483:  MOVLW  04
0484:  MOVWF  41
0485:  CALL   218
....................     MFRC522_Set_Bit( FIFOLEVELREG, 0x80 );     
0486:  MOVLW  0A
0487:  MOVWF  40
0488:  MOVLW  80
0489:  MOVWF  41
048A:  CALL   228
....................      
....................  //Escreve dados no FIFO         
....................     for ( i = 0; i < length; i++ ) 
048B:  CLRF   33
048C:  MOVF   30,W
048D:  SUBWF  33,W
048E:  BTFSC  03.0
048F:  GOTO   4A3
....................     {    
....................         MFRC522_Wr( FIFODATAREG, *dataIn++ );    
0490:  MOVF   2F,W
0491:  MOVWF  7A
0492:  MOVF   2E,W
0493:  INCF   2E,F
0494:  BTFSC  03.2
0495:  INCF   2F,F
0496:  MOVWF  04
0497:  BCF    03.7
0498:  BTFSC  7A.0
0499:  BSF    03.7
049A:  MOVF   00,W
049B:  MOVWF  35
049C:  MOVLW  09
049D:  MOVWF  44
049E:  MOVF   35,W
049F:  MOVWF  45
04A0:  CALL   15E
04A1:  INCF   33,F
04A2:  GOTO   48C
....................     } 
....................      
....................     MFRC522_Wr( COMMANDREG, PCD_CALCCRC ); 
04A3:  MOVLW  01
04A4:  MOVWF  44
04A5:  MOVLW  03
04A6:  MOVWF  45
04A7:  CALL   15E
....................          
....................     i = 0xFF; 
04A8:  MOVLW  FF
04A9:  MOVWF  33
....................     //Espera a finalizao do Calculo do CRC 
....................     do  
....................     { 
....................         n = MFRC522_Rd( DIVIRQREG ); 
04AA:  MOVLW  05
04AB:  MOVWF  43
04AC:  CALL   1BB
04AD:  MOVF   78,W
04AE:  MOVWF  34
....................         i--; 
04AF:  DECF   33,F
....................     } 
....................     while( i && !(n & 0x04) );        //CRCIrq = 1 
04B0:  MOVF   33,F
04B1:  BTFSC  03.2
04B2:  GOTO   4B5
04B3:  BTFSS  34.2
04B4:  GOTO   4AA
....................          
....................     dataOut[0] = MFRC522_Rd( CRCRESULTREGL ); 
04B5:  MOVF   31,W
04B6:  MOVWF  78
04B7:  MOVF   32,W
04B8:  MOVWF  7A
04B9:  MOVF   31,W
04BA:  MOVWF  35
04BB:  MOVF   32,W
04BC:  MOVWF  36
04BD:  MOVLW  22
04BE:  MOVWF  43
04BF:  CALL   1BB
04C0:  MOVF   35,W
04C1:  MOVWF  04
04C2:  BCF    03.7
04C3:  BTFSC  36.0
04C4:  BSF    03.7
04C5:  MOVF   78,W
04C6:  MOVWF  00
....................     dataOut[1] = MFRC522_Rd( CRCRESULTREGM );         
04C7:  MOVLW  01
04C8:  ADDWF  31,W
04C9:  MOVWF  78
04CA:  MOVF   32,W
04CB:  MOVWF  7A
04CC:  BTFSC  03.0
04CD:  INCF   7A,F
04CE:  MOVF   78,W
04CF:  MOVWF  35
04D0:  MOVF   7A,W
04D1:  MOVWF  36
04D2:  MOVLW  21
04D3:  MOVWF  43
04D4:  CALL   1BB
04D5:  MOVF   35,W
04D6:  MOVWF  04
04D7:  BCF    03.7
04D8:  BTFSC  36.0
04D9:  BSF    03.7
04DA:  MOVF   78,W
04DB:  MOVWF  00
.................... } 
.................... char MFRC522_SelectTag( char *serNum ) 
.................... { 
....................   char i; 
....................   char _status; 
....................   char size; 
....................   unsigned recvBits; 
....................   char buffer[9]; 
....................    
....................   //MFRC522_Clear_Bit( STATUS2REG, 0x08 );   //MFCrypto1On=0 
....................    
....................   buffer[0] = PICC_SElECTTAG; 
....................   buffer[1] = 0x70; 
....................    
....................   for ( i=2; i < 7; i++ ) 
....................   { 
....................     buffer[i] = *serNum++; 
....................   } 
....................    
....................   MFRC522_CRC( buffer, 7, &buffer[7] );              
....................    
....................   _status = MFRC522_ToCard( PCD_TRANSCEIVE, buffer, 9, buffer, &recvBits ); 
....................   if ( (_status == MI_OK) && (recvBits == 0x18) ) 
....................   { 
....................     size = buffer[0]; 
....................   } 
....................   else 
....................   { 
....................     size = 0; 
....................   } 
....................   return size; 
.................... } 
.................... //hibernation 
.................... void MFRC522_Halt() 
.................... { 
....................   unsigned unLen; 
....................   char buff[4]; 
....................    
....................   buff[0] = PICC_HALT; 
*
0476:  MOVLW  50
0477:  MOVWF  2A
....................   buff[1] = 0; 
0478:  CLRF   2B
....................   MFRC522_CRC( buff, 2, &buff[2] ); 
0479:  CLRF   2F
047A:  MOVLW  2A
047B:  MOVWF  2E
047C:  MOVLW  02
047D:  MOVWF  30
047E:  CLRF   32
047F:  MOVLW  2C
0480:  MOVWF  31
....................   MFRC522_Clear_Bit( STATUS2REG, 0x80 ); 
*
04DC:  MOVLW  08
04DD:  MOVWF  40
04DE:  MOVLW  80
04DF:  MOVWF  41
04E0:  CALL   218
....................   MFRC522_ToCard( PCD_TRANSCEIVE, buff, 4, buff, &unLen ); 
04E1:  MOVLW  0C
04E2:  MOVWF  32
04E3:  CLRF   34
04E4:  MOVLW  2A
04E5:  MOVWF  33
04E6:  MOVLW  04
04E7:  MOVWF  35
04E8:  CLRF   37
04E9:  MOVLW  2A
04EA:  MOVWF  36
04EB:  CLRF   39
04EC:  MOVLW  29
04ED:  MOVWF  38
04EE:  CALL   2DB
....................   MFRC522_Clear_Bit( STATUS2REG, 0x08 ); 
04EF:  MOVLW  08
04F0:  MOVWF  40
04F1:  MOVWF  41
04F2:  CALL   218
04F3:  BCF    0A.3
04F4:  BCF    0A.4
04F5:  GOTO   547 (RETURN)
.................... } 
.................... char MFRC522_Auth( char authMode, char BlockAddr, char *Sectorkey, char *serNum ) 
.................... { 
....................   char _status; 
....................   unsigned recvBits; 
....................   char i; 
....................   char buff[12]; 
....................    
....................   //Verify the command block address + sector + password + card serial number 
....................   buff[0] = authMode; 
....................   buff[1] = BlockAddr; 
....................    
....................   for ( i = 2; i < 8; i++ ) 
....................   { 
....................     buff[i] = Sectorkey[i-2]; 
....................   } 
....................    
....................   for ( i = 8; i < 12; i++ ) 
....................   { 
....................     buff[i] = serNum[i-8]; 
....................   } 
....................    
....................   _status = MFRC522_ToCard( PCD_AUTHENT, buff, 12, buff, &recvBits ); 
....................    
....................   if ( ( _status != MI_OK ) || !( MFRC522_Rd( STATUS2REG ) & 0x08 ) ) 
....................   { 
....................     _status = MI_ERR; 
....................   } 
....................    
....................   return _status; 
.................... } 
.................... char MFRC522_Write( char blockAddr, char *writeData ) 
.................... { 
....................   char _status; 
....................   unsigned recvBits; 
....................   char i; 
....................   char buff[18]; 
....................   buff[0] = PICC_WRITE; 
....................   buff[1] = blockAddr; 
....................    
....................   MFRC522_CRC( buff, 2, &buff[2] ); 
....................   _status = MFRC522_ToCard( PCD_TRANSCEIVE, buff, 4, buff, &recvBits ); 
....................   if ( (_status != MI_OK) || (recvBits != 4) || ( (buff[0] & 0x0F) != 0x0A) ) 
....................   { 
....................     _status = MI_ERR; 
....................   } 
....................   if (_status == MI_OK) 
....................   { 
....................     for ( i = 0; i < 16; i++ )                //Data to the FIFO write 16Byte 
....................     { 
....................       buff[i] = writeData[i]; 
....................     } 
....................      
....................     MFRC522_CRC( buff, 16, &buff[16] ); 
....................     _status = MFRC522_ToCard( PCD_TRANSCEIVE, buff, 18, buff, &recvBits ); 
....................     if ( (_status != MI_OK) || (recvBits != 4) || ( (buff[0] & 0x0F) != 0x0A ) ) 
....................     { 
....................       _status = MI_ERR; 
....................     } 
....................   } 
....................   return _status; 
.................... } 
.................... char MFRC522_Read( char blockAddr, char *recvData ) 
.................... { 
....................   char _status; 
....................   unsigned unLen; 
....................   recvData[0] = PICC_READ; 
....................   recvData[1] = blockAddr; 
....................    
....................   MFRC522_CRC( recvData, 2, &recvData[2] ); 
....................    
....................   _status = MFRC522_ToCard( PCD_TRANSCEIVE, recvData, 4, recvData, &unLen ); 
....................   if ( (_status != MI_OK) || (unLen != 0x90) ) 
....................   { 
....................     _status = MI_ERR; 
....................   } 
....................   return _status; 
.................... } 
.................... char MFRC522_AntiColl( char *serNum ) 
*
03F4:  CLRF   30
.................... { 
....................   char _status; 
....................   char i; 
....................   char serNumCheck = 0; 
....................   unsigned unLen; 
....................   MFRC522_Wr( BITFRAMINGREG, 0x00 );                //TxLastBists = BitFramingReg[2..0] 
03F5:  MOVLW  0D
03F6:  MOVWF  44
03F7:  CLRF   45
03F8:  CALL   15E
....................   serNum[0] = PICC_ANTICOLL; 
03F9:  MOVF   2C,W
03FA:  MOVWF  04
03FB:  BCF    03.7
03FC:  BTFSC  2D.0
03FD:  BSF    03.7
03FE:  MOVLW  93
03FF:  MOVWF  00
....................   serNum[1] = 0x20; 
0400:  MOVLW  01
0401:  ADDWF  2C,W
0402:  MOVWF  04
0403:  BCF    03.7
0404:  BTFSC  2D.0
0405:  BSF    03.7
0406:  MOVLW  20
0407:  MOVWF  00
....................   MFRC522_Clear_Bit( STATUS2REG, 0x08 ); 
0408:  MOVLW  08
0409:  MOVWF  40
040A:  MOVWF  41
040B:  CALL   218
....................   _status = MFRC522_ToCard( PCD_TRANSCEIVE, serNum, 2, serNum, &unLen ); 
040C:  MOVLW  0C
040D:  MOVWF  32
040E:  MOVF   2D,W
040F:  MOVWF  34
0410:  MOVF   2C,W
0411:  MOVWF  33
0412:  MOVLW  02
0413:  MOVWF  35
0414:  MOVF   2D,W
0415:  MOVWF  37
0416:  MOVF   2C,W
0417:  MOVWF  36
0418:  CLRF   39
0419:  MOVLW  31
041A:  MOVWF  38
041B:  CALL   2DB
041C:  MOVF   78,W
041D:  MOVWF  2E
....................   if (_status == MI_OK) 
041E:  MOVF   2E,F
041F:  BTFSS  03.2
0420:  GOTO   43C
....................   { 
....................     for ( i=0; i < 4; i++ ) 
0421:  CLRF   2F
0422:  MOVF   2F,W
0423:  SUBLW  03
0424:  BTFSS  03.0
0425:  GOTO   430
....................     { 
....................       serNumCheck ^= serNum[i]; 
0426:  MOVF   2F,W
0427:  ADDWF  2C,W
0428:  MOVWF  04
0429:  BCF    03.7
042A:  BTFSC  2D.0
042B:  BSF    03.7
042C:  MOVF   00,W
042D:  XORWF  30,F
042E:  INCF   2F,F
042F:  GOTO   422
....................     } 
....................      
....................     if ( serNumCheck != serNum[4] ) 
0430:  MOVLW  04
0431:  ADDWF  2C,W
0432:  MOVWF  04
0433:  BCF    03.7
0434:  BTFSC  2D.0
0435:  BSF    03.7
0436:  MOVF   00,W
0437:  SUBWF  30,W
0438:  BTFSC  03.2
0439:  GOTO   43C
....................     { 
....................       _status = MI_ERR; 
043A:  MOVLW  02
043B:  MOVWF  2E
....................     } 
....................   } 
....................   return _status; 
043C:  MOVF   2E,W
043D:  MOVWF  78
.................... } 
.................... //0x0044 = Mifare_UltraLight 
.................... //0x0004 = Mifare_One (S50) 
.................... //0x0002 = Mifare_One (S70) 
.................... //0x0008 = Mifare_Pro (X) 
.................... //0x0344 = Mifare_DESFire 
.................... char MFRC522_isCard( char *TagType )  
.................... { 
....................     if (MFRC522_Request( PICC_REQIDL, TagType ) == MI_OK) 
*
03B5:  MOVLW  26
03B6:  MOVWF  2B
03B7:  MOVF   2A,W
03B8:  MOVWF  2D
03B9:  MOVF   29,W
03BA:  MOVWF  2C
*
03E4:  MOVF   78,F
03E5:  BTFSS  03.2
03E6:  GOTO   3EB
....................         return 1; 
03E7:  MOVLW  01
03E8:  MOVWF  78
03E9:  GOTO   3ED
03EA:  GOTO   3ED
....................     else 
....................         return 0;  
03EB:  MOVLW  00
03EC:  MOVWF  78
03ED:  BCF    0A.3
03EE:  BCF    0A.4
03EF:  GOTO   51D (RETURN)
.................... } 
.................... char MFRC522_ReadCardSerial( char *str ) 
.................... { 
.................... char _status;  
....................  _status = MFRC522_AntiColl( str ); 
03F0:  MOVF   2A,W
03F1:  MOVWF  2D
03F2:  MOVF   29,W
03F3:  MOVWF  2C
*
043E:  MOVF   78,W
043F:  MOVWF  2B
....................  str[5] = 0; 
0440:  MOVLW  05
0441:  ADDWF  29,W
0442:  MOVWF  04
0443:  BCF    03.7
0444:  BTFSC  2A.0
0445:  BSF    03.7
0446:  CLRF   00
....................  if (_status == MI_OK) 
0447:  MOVF   2B,F
0448:  BTFSS  03.2
0449:  GOTO   44E
....................   return 1; 
044A:  MOVLW  01
044B:  MOVWF  78
044C:  GOTO   450
044D:  GOTO   450
....................  else 
....................   return 0; 
044E:  MOVLW  00
044F:  MOVWF  78
0450:  BCF    0A.3
0451:  BCF    0A.4
0452:  GOTO   524 (RETURN)
.................... } 
....................  
....................  
....................  
.................... //khai bao bien toan cuc 
.................... //***************************************************************************** 
....................  
.................... //khai bao cac ten chuong trinh con 
.................... //***************************************************************************** 
.................... void _CaiDatLCD(void); 
.................... //su dung ngat 
.................... //***************************************************************************** 
....................  
.................... //chuong trinh chinh 
.................... //***************************************************************************** 
.................... //***************************************************************************** 
.................... void main() 
*
04F6:  MOVF   03,W
04F7:  ANDLW  1F
04F8:  MOVWF  03
04F9:  MOVLW  FF
04FA:  MOVWF  20
04FB:  BSF    03.5
04FC:  BSF    03.6
04FD:  MOVF   09,W
04FE:  ANDLW  C0
04FF:  MOVWF  09
0500:  BCF    03.6
0501:  BCF    1F.4
0502:  BCF    1F.5
0503:  MOVLW  00
0504:  BSF    03.6
0505:  MOVWF  08
0506:  BCF    03.5
0507:  CLRF   07
0508:  CLRF   08
0509:  CLRF   09
050A:  BCF    03.7
.................... { 
....................    char UID[6],i; 
....................    unsigned int TagType;   
....................   // char writeData[] = "Kevifa.com"; 
....................  
....................    _CaiDatLCD(); 
050B:  BCF    03.6
050C:  GOTO   121
....................    MFRC522_Init (); 
050D:  GOTO   237
....................     
....................    lcd_gotoxy(1,1);//dinh vi toa do muon hien thi ki tu len LCD 
050E:  MOVLW  01
050F:  MOVWF  2D
0510:  MOVWF  2E
0511:  CALL   0DA
....................    printf(lcd_putc,"RFID RC522");//hien thi chuoi ki tu len LCD 
0512:  MOVLW  0C
0513:  BSF    03.6
0514:  MOVWF  0D
0515:  MOVLW  00
0516:  MOVWF  0F
0517:  BCF    03.6
0518:  GOTO   283
....................     
....................    while(TRUE) 
....................    { 
....................       //TODO: User Code 
....................        if (MFRC522_isCard (&TagType)) //Check any card 
0519:  CLRF   2A
051A:  MOVLW  28
051B:  MOVWF  29
051C:  GOTO   3B5
051D:  MOVF   78,F
051E:  BTFSC  03.2
051F:  GOTO   547
....................        {              
....................            if(MFRC522_ReadCardSerial (&UID))  
0520:  CLRF   2A
0521:  MOVLW  21
0522:  MOVWF  29
0523:  GOTO   3F0
0524:  MOVF   78,F
0525:  BTFSC  03.2
0526:  GOTO   546
....................            { 
....................                lcd_gotoxy(1,2); 
0527:  MOVLW  01
0528:  MOVWF  2D
0529:  MOVLW  02
052A:  MOVWF  2E
052B:  CALL   0DA
....................                printf(lcd_putc,"ID:"); 
052C:  MOVLW  49
052D:  MOVWF  2C
052E:  CALL   0FD
052F:  MOVLW  44
0530:  MOVWF  2C
0531:  CALL   0FD
0532:  MOVLW  3A
0533:  MOVWF  2C
0534:  CALL   0FD
....................                for(i=0;i<5;i++) 
0535:  CLRF   27
0536:  MOVF   27,W
0537:  SUBLW  04
0538:  BTFSS  03.0
0539:  GOTO   546
....................                { 
....................                   printf(lcd_putc,"%x",UID[i]);//hien thi tung ki tu nhan duoc 
053A:  MOVLW  21
053B:  ADDWF  27,W
053C:  MOVWF  04
053D:  BCF    03.7
053E:  MOVF   00,W
053F:  MOVWF  29
0540:  MOVWF  2A
0541:  MOVLW  57
0542:  MOVWF  2B
0543:  GOTO   453
0544:  INCF   27,F
0545:  GOTO   536
....................                   //o dang ma so hexa 
....................                }                            
....................            }         
....................             //Ngu dong 
....................             MFRC522_Halt() ;            
0546:  GOTO   476
....................        }              
0547:  GOTO   519
....................    } 
....................  
.................... } 
.................... //viet noi dung cho cac chuong trinh con da duoc dinh nghia truoc do 
0548:  SLEEP
.................... //***************************************************************************** 
.................... //***************************************************************************** 
.................... void _CaiDatLCD(void) 
.................... { 
....................    lcd_init();//khoi dong module LCD 
....................    lcd_putc('\f');//xoa trang man hinh LCD 
*
0158:  MOVLW  0C
0159:  MOVWF  2C
015A:  CALL   0FD
015B:  BCF    0A.3
015C:  BCF    0A.4
015D:  GOTO   50D (RETURN)
.................... } 
....................  

Configuration Fuses:
   Word  1: 2CE1   XT NOWDT PUT MCLR NOPROTECT NOCPD NOBROWNOUT IESO FCMEN NOLVP NODEBUG
   Word  2: 3FFF   BORV40 NOWRT
